ccopy_reg
_reconstructor
p0
(ctulip.transys.machines
MealyMachine
p1
c__builtin__
object
p2
Ntp3
Rp4
(dp5
S'_transition_label_def'
p6
(dp7
S'loc'
p8
c__builtin__
set
p9
((lp10
S's9'
p11
aS's8'
p12
aS's17'
p13
aS's3'
p14
aS's2'
p15
aS's1'
p16
aS's0'
p17
aS's7'
p18
aS's6'
p19
aS's5'
p20
aS's4'
p21
aS's13'
p22
aS's34'
p23
aS's26'
p24
aS's11'
p25
aS's27'
p26
aS's19'
p27
aS's18'
p28
aS's39'
p29
aS's38'
p30
aS's35'
p31
aS's12'
p32
aS's37'
p33
aS's10'
p34
aS's31'
p35
aS's16'
p36
aS's15'
p37
aS's14'
p38
aS's33'
p39
aS's32'
p40
aS's30'
p41
aS's22'
p42
aS's23'
p43
aS's20'
p44
aS's21'
p45
aS's40'
p46
aS's41'
p47
aS's24'
p48
aS's25'
p49
aS's28'
p50
aS's29'
p51
aS's36'
p52
atp53
Rp54
sS'noHXfreeze'
p55
g9
((lp56
I0
aI1
atp57
Rp58
sS'level'
p59
g9
((lp60
I0
aI1
aI2
atp61
Rp62
sS'tempCold'
p63
g9
((lp64
I0
aI1
atp65
Rp66
sS'tempGood'
p67
g9
((lp68
I0
aI1
atp69
Rp70
sS'trackfl'
p71
g9
((lp72
I0
aI1
aI2
aI3
atp73
Rp74
sS'tempHot'
p75
g9
((lp76
I0
aI1
atp77
Rp78
ssS'_node_label_defaults'
p79
(dp80
sS'_state_label_def'
p81
(dp82
sS'_edge_label_types'
p83
g7
sS'transitions'
p84
g0
(ctulip.transys.labeled_graphs
Transitions
p85
g2
Ntp86
Rp87
(dp88
S'graph'
p89
g4
sS'_deterministic'
p90
I00
sbsS'state_vars'
p91
(dp92
sS'pred'
p93
(dp94
I0
(dp95
I35
(dp96
I0
g0
(ctulip.transys.mathset
TypedDict
p97
c__builtin__
dict
p98
(dp99
S'loc'
p100
g45
sS'noHXfreeze'
p101
I1
sS'tempCold'
p102
I0
sS'level'
p103
I0
sS'trackfl'
p104
I3
sS'tempHot'
p105
I0
sS'tempGood'
p106
I0
stp107
Rp108
(dp109
S'allowed_values'
p110
g7
sbssI8
(dp111
I0
g0
(g97
g98
(dp112
g100
g45
sg101
I1
sg102
I0
sg103
I0
sg104
I3
sg105
I0
sg106
I0
stp113
Rp114
(dp115
g110
g7
sbssI9
(dp116
I0
g0
(g97
g98
(dp117
g100
g45
sg101
I1
sg102
I0
sg103
I0
sg104
I3
sg105
I0
sg106
I0
stp118
Rp119
(dp120
g110
g7
sbssI10
(dp121
I0
g0
(g97
g98
(dp122
g100
g45
sg101
I1
sg102
I0
sg103
I0
sg104
I3
sg105
I0
sg106
I0
stp123
Rp124
(dp125
g110
g7
sbssI26
(dp126
I0
g0
(g97
g98
(dp127
g100
g45
sg101
I1
sg102
I0
sg103
I0
sg104
I3
sg105
I0
sg106
I0
stp128
Rp129
(dp130
g110
g7
sbssI30
(dp131
I0
g0
(g97
g98
(dp132
g100
g45
sg101
I1
sg102
I0
sg103
I0
sg104
I3
sg105
I0
sg106
I0
stp133
Rp134
(dp135
g110
g7
sbsssI1
(dp136
I3
(dp137
I0
g0
(g97
g98
(dp138
S'loc'
p139
g32
sS'noHXfreeze'
p140
I0
sS'tempCold'
p141
I0
sS'level'
p142
I0
sS'trackfl'
p143
I3
sS'tempHot'
p144
I0
sS'tempGood'
p145
I0
stp146
Rp147
(dp148
g110
g7
sbsssI2
(dp149
I3
(dp150
I0
g0
(g97
g98
(dp151
S'loc'
p152
g26
sS'noHXfreeze'
p153
I0
sS'tempCold'
p154
I0
sS'level'
p155
I1
sS'trackfl'
p156
I3
sS'tempHot'
p157
I0
sS'tempGood'
p158
I0
stp159
Rp160
(dp161
g110
g7
sbssI4
(dp162
I0
g0
(g97
g98
(dp163
g152
g26
sg153
I0
sg154
I0
sg155
I1
sg156
I3
sg157
I0
sg158
I0
stp164
Rp165
(dp166
g110
g7
sbssI14
(dp167
I0
g0
(g97
g98
(dp168
g152
g26
sg153
I0
sg154
I0
sg155
I1
sg156
I3
sg157
I0
sg158
I0
stp169
Rp170
(dp171
g110
g7
sbsssI3
(dp172
I4
(dp173
I0
g0
(g97
g98
(dp174
S'loc'
p175
g11
sS'noHXfreeze'
p176
I0
sS'tempCold'
p177
I1
sS'level'
p178
I0
sS'trackfl'
p179
I2
sS'tempHot'
p180
I0
sS'tempGood'
p181
I0
stp182
Rp183
(dp184
g110
g7
sbssI14
(dp185
I0
g0
(g97
g98
(dp186
g175
g11
sg176
I0
sg177
I1
sg178
I0
sg179
I2
sg180
I0
sg181
I0
stp187
Rp188
(dp189
g110
g7
sbsssI4
(dp190
I2
(dp191
I0
g0
(g97
g98
(dp192
S'loc'
p193
g12
sS'noHXfreeze'
p194
I1
sS'tempCold'
p195
I0
sS'level'
p196
I0
sS'trackfl'
p197
I3
sS'tempHot'
p198
I0
sS'tempGood'
p199
I0
stp200
Rp201
(dp202
g110
g7
sbssI7
(dp203
I0
g0
(g97
g98
(dp204
g193
g12
sg194
I1
sg195
I0
sg196
I0
sg197
I3
sg198
I0
sg199
I0
stp205
Rp206
(dp207
g110
g7
sbsssI5
(dp208
I2
(dp209
I0
g0
(g97
g98
(dp210
S'loc'
p211
g12
sS'noHXfreeze'
p212
I1
sS'tempCold'
p213
I0
sS'level'
p214
I1
sS'trackfl'
p215
I3
sS'tempHot'
p216
I0
sS'tempGood'
p217
I0
stp218
Rp219
(dp220
g110
g7
sbssI7
(dp221
I0
g0
(g97
g98
(dp222
g211
g12
sg212
I1
sg213
I0
sg214
I1
sg215
I3
sg216
I0
sg217
I0
stp223
Rp224
(dp225
g110
g7
sbsssI6
(dp226
I2
(dp227
I0
g0
(g97
g98
(dp228
S'loc'
p229
g12
sS'noHXfreeze'
p230
I1
sS'tempCold'
p231
I0
sS'level'
p232
I2
sS'trackfl'
p233
I3
sS'tempHot'
p234
I0
sS'tempGood'
p235
I0
stp236
Rp237
(dp238
g110
g7
sbssI7
(dp239
I0
g0
(g97
g98
(dp240
g229
g12
sg230
I1
sg231
I0
sg232
I2
sg233
I3
sg234
I0
sg235
I0
stp241
Rp242
(dp243
g110
g7
sbsssI7
(dp244
I4
(dp245
I0
g0
(g97
g98
(dp246
S'loc'
p247
g26
sS'noHXfreeze'
p248
I0
sS'tempCold'
p249
I0
sS'level'
p250
I2
sS'trackfl'
p251
I3
sS'tempHot'
p252
I0
sS'tempGood'
p253
I0
stp254
Rp255
(dp256
g110
g7
sbssI5
(dp257
I0
g0
(g97
g98
(dp258
g247
g26
sg248
I0
sg249
I0
sg250
I2
sg251
I3
sg252
I0
sg253
I0
stp259
Rp260
(dp261
g110
g7
sbssI14
(dp262
I0
g0
(g97
g98
(dp263
g247
g26
sg248
I0
sg249
I0
sg250
I2
sg251
I3
sg252
I0
sg253
I0
stp264
Rp265
(dp266
g110
g7
sbssI15
(dp267
I0
g0
(g97
g98
(dp268
g247
g26
sg248
I0
sg249
I0
sg250
I2
sg251
I3
sg252
I0
sg253
I0
stp269
Rp270
(dp271
g110
g7
sbsssI8
(dp272
I34
(dp273
I0
g0
(g97
g98
(dp274
S'loc'
p275
g11
sS'noHXfreeze'
p276
I0
sS'tempCold'
p277
I1
sS'level'
p278
I2
sS'trackfl'
p279
I2
sS'tempHot'
p280
I0
sS'tempGood'
p281
I0
stp282
Rp283
(dp284
g110
g7
sbssI3
(dp285
I0
g0
(g97
g98
(dp286
g275
g11
sg276
I0
sg277
I1
sg278
I2
sg279
I2
sg280
I0
sg281
I0
stp287
Rp288
(dp289
g110
g7
sbssI13
(dp290
I0
g0
(g97
g98
(dp291
g275
g11
sg276
I0
sg277
I1
sg278
I2
sg279
I2
sg280
I0
sg281
I0
stp292
Rp293
(dp294
g110
g7
sbssI6
(dp295
I0
g0
(g97
g98
(dp296
g275
g11
sg276
I0
sg277
I1
sg278
I2
sg279
I2
sg280
I0
sg281
I0
stp297
Rp298
(dp299
g110
g7
sbssI29
(dp300
I0
g0
(g97
g98
(dp301
g275
g11
sg276
I0
sg277
I1
sg278
I2
sg279
I2
sg280
I0
sg281
I0
stp302
Rp303
(dp304
g110
g7
sbsssI9
(dp305
I1
(dp306
I0
g0
(g97
g98
(dp307
S'loc'
p308
g16
sS'noHXfreeze'
p309
I0
sS'tempCold'
p310
I0
sS'level'
p311
I2
sS'trackfl'
p312
I1
sS'tempHot'
p313
I0
sS'tempGood'
p314
I1
stp315
Rp316
(dp317
g110
g7
sbssI11
(dp318
I0
g0
(g97
g98
(dp319
g308
g16
sg309
I0
sg310
I0
sg311
I2
sg312
I1
sg313
I0
sg314
I1
stp320
Rp321
(dp322
g110
g7
sbssI12
(dp323
I0
g0
(g97
g98
(dp324
g308
g16
sg309
I0
sg310
I0
sg311
I2
sg312
I1
sg313
I0
sg314
I1
stp325
Rp326
(dp327
g110
g7
sbsssI10
(dp328
S'Sinit'
p329
(dp330
I0
g0
(g97
g98
(dp331
S'loc'
p332
g16
sS'noHXfreeze'
p333
I0
sS'tempCold'
p334
I0
sS'level'
p335
I1
sS'trackfl'
p336
I1
sS'tempHot'
p337
I0
sS'tempGood'
p338
I1
stp339
Rp340
(dp341
g110
g7
sbssI1
(dp342
I0
g0
(g97
g98
(dp343
g332
g16
sg333
I0
sg334
I0
sg335
I1
sg336
I1
sg337
I0
sg338
I1
stp344
Rp345
(dp346
g110
g7
sbssI11
(dp347
I0
g0
(g97
g98
(dp348
g332
g16
sg333
I0
sg334
I0
sg335
I1
sg336
I1
sg337
I0
sg338
I1
stp349
Rp350
(dp351
g110
g7
sbssI12
(dp352
I0
g0
(g97
g98
(dp353
g332
g16
sg333
I0
sg334
I0
sg335
I1
sg336
I1
sg337
I0
sg338
I1
stp354
Rp355
(dp356
g110
g7
sbsssI11
(dp357
I1
(dp358
I0
g0
(g97
g98
(dp359
S'loc'
p360
g16
sS'noHXfreeze'
p361
I0
sS'tempCold'
p362
I0
sS'level'
p363
I0
sS'trackfl'
p364
I1
sS'tempHot'
p365
I0
sS'tempGood'
p366
I1
stp367
Rp368
(dp369
g110
g7
sbssI12
(dp370
I0
g0
(g97
g98
(dp371
g360
g16
sg361
I0
sg362
I0
sg363
I0
sg364
I1
sg365
I0
sg366
I1
stp372
Rp373
(dp374
g110
g7
sbsssI12
(dp375
I13
(dp376
I0
g0
(g97
g98
(dp377
S'loc'
p378
g32
sS'noHXfreeze'
p379
I0
sS'tempCold'
p380
I0
sS'level'
p381
I1
sS'trackfl'
p382
I3
sS'tempHot'
p383
I0
sS'tempGood'
p384
I0
stp385
Rp386
(dp387
g110
g7
sbsssI13
(dp388
I5
(dp389
I0
g0
(g97
g98
(dp390
S'loc'
p391
g11
sS'noHXfreeze'
p392
I0
sS'tempCold'
p393
I1
sS'level'
p394
I1
sS'trackfl'
p395
I2
sS'tempHot'
p396
I0
sS'tempGood'
p397
I0
stp398
Rp399
(dp400
g110
g7
sbssI15
(dp401
I0
g0
(g97
g98
(dp402
g391
g11
sg392
I0
sg393
I1
sg394
I1
sg395
I2
sg396
I0
sg397
I0
stp403
Rp404
(dp405
g110
g7
sbsssI14
(dp406
I15
(dp407
I0
g0
(g97
g98
(dp408
S'loc'
p409
g26
sS'noHXfreeze'
p410
I0
sS'tempCold'
p411
I0
sS'level'
p412
I0
sS'trackfl'
p413
I3
sS'tempHot'
p414
I0
sS'tempGood'
p415
I0
stp416
Rp417
(dp418
g110
g7
sbssI29
(dp419
I0
g0
(g97
g98
(dp420
g409
g26
sg410
I0
sg411
I0
sg412
I0
sg413
I3
sg414
I0
sg415
I0
stp421
Rp422
(dp423
g110
g7
sbssI5
(dp424
I0
g0
(g97
g98
(dp425
g409
g26
sg410
I0
sg411
I0
sg412
I0
sg413
I3
sg414
I0
sg415
I0
stp426
Rp427
(dp428
g110
g7
sbssI6
(dp429
I0
g0
(g97
g98
(dp430
g409
g26
sg410
I0
sg411
I0
sg412
I0
sg413
I3
sg414
I0
sg415
I0
stp431
Rp432
(dp433
g110
g7
sbssI13
(dp434
I0
g0
(g97
g98
(dp435
g409
g26
sg410
I0
sg411
I0
sg412
I0
sg413
I3
sg414
I0
sg415
I0
stp436
Rp437
(dp438
g110
g7
sbsssI15
(dp439
I29
(dp440
I0
g0
(g97
g98
(dp441
S'loc'
p442
g26
sS'noHXfreeze'
p443
I0
sS'tempCold'
p444
I0
sS'level'
p445
I1
sS'trackfl'
p446
I3
sS'tempHot'
p447
I0
sS'tempGood'
p448
I0
stp449
Rp450
(dp451
g110
g7
sbssI6
(dp452
I0
g0
(g97
g98
(dp453
g442
g26
sg443
I0
sg444
I0
sg445
I1
sg446
I3
sg447
I0
sg448
I0
stp454
Rp455
(dp456
g110
g7
sbsssI16
(dp457
I17
(dp458
I0
g0
(g97
g98
(dp459
S'loc'
p460
g49
sS'noHXfreeze'
p461
I0
sS'tempCold'
p462
I0
sS'level'
p463
I2
sS'trackfl'
p464
I3
sS'tempHot'
p465
I0
sS'tempGood'
p466
I0
stp467
Rp468
(dp469
g110
g7
sbsssI17
(dp470
I22
(dp471
I0
g0
(g97
g98
(dp472
S'loc'
p473
g14
sS'noHXfreeze'
p474
I0
sS'tempCold'
p475
I0
sS'level'
p476
I2
sS'trackfl'
p477
I0
sS'tempHot'
p478
I1
sS'tempGood'
p479
I0
stp480
Rp481
(dp482
g110
g7
sbssI23
(dp483
I0
g0
(g97
g98
(dp484
g473
g14
sg474
I0
sg475
I0
sg476
I2
sg477
I0
sg478
I1
sg479
I0
stp485
Rp486
(dp487
g110
g7
sbsssI18
(dp488
I20
(dp489
I0
g0
(g97
g98
(dp490
S'loc'
p491
g14
sS'noHXfreeze'
p492
I0
sS'tempCold'
p493
I0
sS'level'
p494
I2
sS'trackfl'
p495
I0
sS'tempHot'
p496
I1
sS'tempGood'
p497
I0
stp498
Rp499
(dp500
g110
g7
sbssI21
(dp501
I0
g0
(g97
g98
(dp502
g491
g14
sg492
I0
sg493
I0
sg494
I2
sg495
I0
sg496
I1
sg497
I0
stp503
Rp504
(dp505
g110
g7
sbsssI19
(dp506
I20
(dp507
I0
g0
(g97
g98
(dp508
S'loc'
p509
g49
sS'noHXfreeze'
p510
I0
sS'tempCold'
p511
I0
sS'level'
p512
I1
sS'trackfl'
p513
I3
sS'tempHot'
p514
I0
sS'tempGood'
p515
I0
stp516
Rp517
(dp518
g110
g7
sbsssI20
(dp519
I17
(dp520
I0
g0
(g97
g98
(dp521
S'loc'
p522
g14
sS'noHXfreeze'
p523
I0
sS'tempCold'
p524
I0
sS'level'
p525
I1
sS'trackfl'
p526
I0
sS'tempHot'
p527
I1
sS'tempGood'
p528
I0
stp529
Rp530
(dp531
g110
g7
sbssI21
(dp532
I0
g0
(g97
g98
(dp533
g522
g14
sg523
I0
sg524
I0
sg525
I1
sg526
I0
sg527
I1
sg528
I0
stp534
Rp535
(dp536
g110
g7
sbssI22
(dp537
I0
g0
(g97
g98
(dp538
g522
g14
sg523
I0
sg524
I0
sg525
I1
sg526
I0
sg527
I1
sg528
I0
stp539
Rp540
(dp541
g110
g7
sbssI23
(dp542
I0
g0
(g97
g98
(dp543
g522
g14
sg523
I0
sg524
I0
sg525
I1
sg526
I0
sg527
I1
sg528
I0
stp544
Rp545
(dp546
g110
g7
sbsssI21
(dp547
I24
(dp548
I0
g0
(g97
g98
(dp549
S'loc'
p550
g20
sS'noHXfreeze'
p551
I1
sS'tempCold'
p552
I0
sS'level'
p553
I1
sS'trackfl'
p554
I3
sS'tempHot'
p555
I0
sS'tempGood'
p556
I0
stp557
Rp558
(dp559
g110
g7
sbssI18
(dp560
I0
g0
(g97
g98
(dp561
g550
g20
sg551
I1
sg552
I0
sg553
I1
sg554
I3
sg555
I0
sg556
I0
stp562
Rp563
(dp564
g110
g7
sbsssI22
(dp565
I24
(dp566
I0
g0
(g97
g98
(dp567
S'loc'
p568
g20
sS'noHXfreeze'
p569
I1
sS'tempCold'
p570
I0
sS'level'
p571
I2
sS'trackfl'
p572
I3
sS'tempHot'
p573
I0
sS'tempGood'
p574
I0
stp575
Rp576
(dp577
g110
g7
sbssI18
(dp578
I0
g0
(g97
g98
(dp579
g568
g20
sg569
I1
sg570
I0
sg571
I2
sg572
I3
sg573
I0
sg574
I0
stp580
Rp581
(dp582
g110
g7
sbsssI23
(dp583
I24
(dp584
I0
g0
(g97
g98
(dp585
S'loc'
p586
g36
sS'noHXfreeze'
p587
I1
sS'tempCold'
p588
I0
sS'level'
p589
I0
sS'trackfl'
p590
I0
sS'tempHot'
p591
I1
sS'tempGood'
p592
I0
stp593
Rp594
(dp595
g110
g7
sbssI18
(dp596
I0
g0
(g97
g98
(dp597
g586
g36
sg587
I1
sg588
I0
sg589
I0
sg590
I0
sg591
I1
sg592
I0
stp598
Rp599
(dp600
g110
g7
sbsssI24
(dp601
I17
(dp602
I0
g0
(g97
g98
(dp603
S'loc'
p604
g14
sS'noHXfreeze'
p605
I0
sS'tempCold'
p606
I0
sS'level'
p607
I0
sS'trackfl'
p608
I0
sS'tempHot'
p609
I1
sS'tempGood'
p610
I0
stp611
Rp612
(dp613
g110
g7
sbssI20
(dp614
I0
g0
(g97
g98
(dp615
g604
g14
sg605
I0
sg606
I0
sg607
I0
sg608
I0
sg609
I1
sg610
I0
stp616
Rp617
(dp618
g110
g7
sbssI21
(dp619
I0
g0
(g97
g98
(dp620
g604
g14
sg605
I0
sg606
I0
sg607
I0
sg608
I0
sg609
I1
sg610
I0
stp621
Rp622
(dp623
g110
g7
sbssI22
(dp624
I0
g0
(g97
g98
(dp625
g604
g14
sg605
I0
sg606
I0
sg607
I0
sg608
I0
sg609
I1
sg610
I0
stp626
Rp627
(dp628
g110
g7
sbssI23
(dp629
I0
g0
(g97
g98
(dp630
g604
g14
sg605
I0
sg606
I0
sg607
I0
sg608
I0
sg609
I1
sg610
I0
stp631
Rp632
(dp633
g110
g7
sbssI25
(dp634
I0
g0
(g97
g98
(dp635
g604
g14
sg605
I0
sg606
I0
sg607
I0
sg608
I0
sg609
I1
sg610
I0
stp636
Rp637
(dp638
g110
g7
sbsssI25
(dp639
I27
(dp640
I0
g0
(g97
g98
(dp641
S'loc'
p642
g49
sS'noHXfreeze'
p643
I0
sS'tempCold'
p644
I0
sS'level'
p645
I0
sS'trackfl'
p646
I3
sS'tempHot'
p647
I0
sS'tempGood'
p648
I0
stp649
Rp650
(dp651
g110
g7
sbssI11
(dp652
I0
g0
(g97
g98
(dp653
g642
g49
sg643
I0
sg644
I0
sg645
I0
sg646
I3
sg647
I0
sg648
I0
stp654
Rp655
(dp656
g110
g7
sbsssI26
(dp657
I0
(dp658
I0
g0
(g97
g98
(dp659
S'loc'
p660
g51
sS'noHXfreeze'
p661
I0
sS'tempCold'
p662
I0
sS'level'
p663
I2
sS'trackfl'
p664
I1
sS'tempHot'
p665
I0
sS'tempGood'
p666
I1
stp667
Rp668
(dp669
g110
g7
sbssI25
(dp670
I0
g0
(g97
g98
(dp671
g660
g51
sg661
I0
sg662
I0
sg663
I2
sg664
I1
sg665
I0
sg666
I1
stp672
Rp673
(dp674
g110
g7
sbssI19
(dp675
I0
g0
(g97
g98
(dp676
g660
g51
sg661
I0
sg662
I0
sg663
I2
sg664
I1
sg665
I0
sg666
I1
stp677
Rp678
(dp679
g110
g7
sbssI28
(dp680
I0
g0
(g97
g98
(dp681
g660
g51
sg661
I0
sg662
I0
sg663
I2
sg664
I1
sg665
I0
sg666
I1
stp682
Rp683
(dp684
g110
g7
sbssI27
(dp685
I0
g0
(g97
g98
(dp686
g660
g51
sg661
I0
sg662
I0
sg663
I2
sg664
I1
sg665
I0
sg666
I1
stp687
Rp688
(dp689
g110
g7
sbsssI27
(dp690
I0
(dp691
I0
g0
(g97
g98
(dp692
S'loc'
p693
g51
sS'noHXfreeze'
p694
I0
sS'tempCold'
p695
I0
sS'level'
p696
I0
sS'trackfl'
p697
I1
sS'tempHot'
p698
I0
sS'tempGood'
p699
I1
stp700
Rp701
(dp702
g110
g7
sbssI32
(dp703
I0
g0
(g97
g98
(dp704
g693
g51
sg694
I0
sg695
I0
sg696
I0
sg697
I1
sg698
I0
sg699
I1
stp705
Rp706
(dp707
g110
g7
sbssI34
(dp708
I0
g0
(g97
g98
(dp709
g693
g51
sg694
I0
sg695
I0
sg696
I0
sg697
I1
sg698
I0
sg699
I1
stp710
Rp711
(dp712
g110
g7
sbssI33
(dp713
I0
g0
(g97
g98
(dp714
g693
g51
sg694
I0
sg695
I0
sg696
I0
sg697
I1
sg698
I0
sg699
I1
stp715
Rp716
(dp717
g110
g7
sbssI16
(dp718
I0
g0
(g97
g98
(dp719
g693
g51
sg694
I0
sg695
I0
sg696
I0
sg697
I1
sg698
I0
sg699
I1
stp720
Rp721
(dp722
g110
g7
sbssI19
(dp723
I0
g0
(g97
g98
(dp724
g693
g51
sg694
I0
sg695
I0
sg696
I0
sg697
I1
sg698
I0
sg699
I1
stp725
Rp726
(dp727
g110
g7
sbssI28
(dp728
I0
g0
(g97
g98
(dp729
g693
g51
sg694
I0
sg695
I0
sg696
I0
sg697
I1
sg698
I0
sg699
I1
stp730
Rp731
(dp732
g110
g7
sbssI31
(dp733
I0
g0
(g97
g98
(dp734
g693
g51
sg694
I0
sg695
I0
sg696
I0
sg697
I1
sg698
I0
sg699
I1
stp735
Rp736
(dp737
g110
g7
sbsssI28
(dp738
I8
(dp739
I0
g0
(g97
g98
(dp740
S'loc'
p741
g45
sS'noHXfreeze'
p742
I1
sS'tempCold'
p743
I0
sS'level'
p744
I1
sS'trackfl'
p745
I3
sS'tempHot'
p746
I0
sS'tempGood'
p747
I0
stp748
Rp749
(dp750
g110
g7
sbssI30
(dp751
I0
g0
(g97
g98
(dp752
g741
g45
sg742
I1
sg743
I0
sg744
I1
sg745
I3
sg746
I0
sg747
I0
stp753
Rp754
(dp755
g110
g7
sbsssI29
(dp756
I8
(dp757
I0
g0
(g97
g98
(dp758
S'loc'
p759
g28
sS'noHXfreeze'
p760
I1
sS'tempCold'
p761
I1
sS'level'
p762
I2
sS'trackfl'
p763
I2
sS'tempHot'
p764
I0
sS'tempGood'
p765
I0
stp766
Rp767
(dp768
g110
g7
sbssI30
(dp769
I0
g0
(g97
g98
(dp770
g759
g28
sg760
I1
sg761
I1
sg762
I2
sg763
I2
sg764
I0
sg765
I0
stp771
Rp772
(dp773
g110
g7
sbsssI30
(dp774
I31
(dp775
I0
g0
(g97
g98
(dp776
S'loc'
p777
g43
sS'noHXfreeze'
p778
I0
sS'tempCold'
p779
I1
sS'level'
p780
I2
sS'trackfl'
p781
I2
sS'tempHot'
p782
I0
sS'tempGood'
p783
I0
stp784
Rp785
(dp786
g110
g7
sbsssI31
(dp787
I32
(dp788
I0
g0
(g97
g98
(dp789
S'loc'
p790
g46
sS'noHXfreeze'
p791
I0
sS'tempCold'
p792
I0
sS'level'
p793
I2
sS'trackfl'
p794
I3
sS'tempHot'
p795
I0
sS'tempGood'
p796
I0
stp797
Rp798
(dp799
g110
g7
sbsssI32
(dp800
I16
(dp801
I0
g0
(g97
g98
(dp802
S'loc'
p803
g51
sS'noHXfreeze'
p804
I0
sS'tempCold'
p805
I0
sS'level'
p806
I2
sS'trackfl'
p807
I1
sS'tempHot'
p808
I0
sS'tempGood'
p809
I1
stp810
Rp811
(dp812
g110
g7
sbssI33
(dp813
I0
g0
(g97
g98
(dp814
g803
g51
sg804
I0
sg805
I0
sg806
I2
sg807
I1
sg808
I0
sg809
I1
stp815
Rp816
(dp817
g110
g7
sbsssI33
(dp818
g329
(dp819
I0
g0
(g97
g98
(dp820
S'loc'
p821
g38
sS'noHXfreeze'
p822
I1
sS'tempCold'
p823
I0
sS'level'
p824
I1
sS'trackfl'
p825
I1
sS'tempHot'
p826
I0
sS'tempGood'
p827
I1
stp828
Rp829
(dp830
g110
g7
sbssI9
(dp831
I0
g0
(g97
g98
(dp832
g821
g38
sg822
I1
sg823
I0
sg824
I1
sg825
I1
sg826
I0
sg827
I1
stp833
Rp834
(dp835
g110
g7
sbssI10
(dp836
I0
g0
(g97
g98
(dp837
g821
g38
sg822
I1
sg823
I0
sg824
I1
sg825
I1
sg826
I0
sg827
I1
stp838
Rp839
(dp840
g110
g7
sbssI35
(dp841
I0
g0
(g97
g98
(dp842
g821
g38
sg822
I1
sg823
I0
sg824
I1
sg825
I1
sg826
I0
sg827
I1
stp843
Rp844
(dp845
g110
g7
sbssI26
(dp846
I0
g0
(g97
g98
(dp847
g821
g38
sg822
I1
sg823
I0
sg824
I1
sg825
I1
sg826
I0
sg827
I1
stp848
Rp849
(dp850
g110
g7
sbsssI34
(dp851
I9
(dp852
I0
g0
(g97
g98
(dp853
S'loc'
p854
g45
sS'noHXfreeze'
p855
I1
sS'tempCold'
p856
I0
sS'level'
p857
I2
sS'trackfl'
p858
I3
sS'tempHot'
p859
I0
sS'tempGood'
p860
I0
stp861
Rp862
(dp863
g110
g7
sbssI10
(dp864
I0
g0
(g97
g98
(dp865
g854
g45
sg855
I1
sg856
I0
sg857
I2
sg858
I3
sg859
I0
sg860
I0
stp866
Rp867
(dp868
g110
g7
sbssI35
(dp869
I0
g0
(g97
g98
(dp870
g854
g45
sg855
I1
sg856
I0
sg857
I2
sg858
I3
sg859
I0
sg860
I0
stp871
Rp872
(dp873
g110
g7
sbssI26
(dp874
I0
g0
(g97
g98
(dp875
g854
g45
sg855
I1
sg856
I0
sg857
I2
sg858
I3
sg859
I0
sg860
I0
stp876
Rp877
(dp878
g110
g7
sbsssI35
(dp879
I0
(dp880
I0
g0
(g97
g98
(dp881
S'loc'
p882
g51
sS'noHXfreeze'
p883
I0
sS'tempCold'
p884
I0
sS'level'
p885
I1
sS'trackfl'
p886
I1
sS'tempHot'
p887
I0
sS'tempGood'
p888
I1
stp889
Rp890
(dp891
g110
g7
sbssI32
(dp892
I0
g0
(g97
g98
(dp893
g882
g51
sg883
I0
sg884
I0
sg885
I1
sg886
I1
sg887
I0
sg888
I1
stp894
Rp895
(dp896
g110
g7
sbssI34
(dp897
I0
g0
(g97
g98
(dp898
g882
g51
sg883
I0
sg884
I0
sg885
I1
sg886
I1
sg887
I0
sg888
I1
stp899
Rp900
(dp901
g110
g7
sbssI33
(dp902
I0
g0
(g97
g98
(dp903
g882
g51
sg883
I0
sg884
I0
sg885
I1
sg886
I1
sg887
I0
sg888
I1
stp904
Rp905
(dp906
g110
g7
sbssg329
(dp907
I0
g0
(g97
g98
(dp908
g882
g51
sg883
I0
sg884
I0
sg885
I1
sg886
I1
sg887
I0
sg888
I1
stp909
Rp910
(dp911
g110
g7
sbssI16
(dp912
I0
g0
(g97
g98
(dp913
g882
g51
sg883
I0
sg884
I0
sg885
I1
sg886
I1
sg887
I0
sg888
I1
stp914
Rp915
(dp916
g110
g7
sbssI19
(dp917
I0
g0
(g97
g98
(dp918
g882
g51
sg883
I0
sg884
I0
sg885
I1
sg886
I1
sg887
I0
sg888
I1
stp919
Rp920
(dp921
g110
g7
sbssI25
(dp922
I0
g0
(g97
g98
(dp923
g882
g51
sg883
I0
sg884
I0
sg885
I1
sg886
I1
sg887
I0
sg888
I1
stp924
Rp925
(dp926
g110
g7
sbssI27
(dp927
I0
g0
(g97
g98
(dp928
g882
g51
sg883
I0
sg884
I0
sg885
I1
sg886
I1
sg887
I0
sg888
I1
stp929
Rp930
(dp931
g110
g7
sbssI28
(dp932
I0
g0
(g97
g98
(dp933
g882
g51
sg883
I0
sg884
I0
sg885
I1
sg886
I1
sg887
I0
sg888
I1
stp934
Rp935
(dp936
g110
g7
sbssI31
(dp937
I0
g0
(g97
g98
(dp938
g882
g51
sg883
I0
sg884
I0
sg885
I1
sg886
I1
sg887
I0
sg888
I1
stp939
Rp940
(dp941
g110
g7
sbsssg329
(dp942
ssS'_state_dot_label_format'
p943
(dp944
S'separator'
p945
S'\n'
p946
sS'type?label'
p947
S':'
p948
ssS'_transition_dot_label_format'
p949
(dp950
g8
S'/loc'
p951
sg55
S'/noHXfreeze'
p952
sg947
g948
sg59
g59
sg63
S'/tempCold'
p953
sg67
S'/tempGood'
p954
sg71
S'/trackfl'
p955
sg945
g946
sg75
S'/tempHot'
p956
ssS'adj'
p957
(dp958
I0
(dp959
I27
g691
sI26
g658
sI35
g880
ssI1
(dp960
I9
g306
sI10
g342
sI11
g358
ssI2
(dp961
I4
g191
sI5
g209
sI6
g227
ssI3
(dp962
I8
g285
sI1
g137
sI2
g150
ssI4
(dp963
I2
g162
sI3
g173
sI7
g245
ssI5
(dp964
I13
g389
sI14
g424
sI7
g257
ssI6
(dp965
I8
g295
sI14
g429
sI15
g452
ssI7
(dp966
I4
g203
sI5
g221
sI6
g239
ssI8
(dp967
I0
g111
sI28
g739
sI29
g757
ssI9
(dp968
I0
g116
sI33
g831
sI34
g852
ssI10
(dp969
I0
g121
sI33
g836
sI34
g864
ssI11
(dp970
I25
g652
sI10
g347
sI9
g318
ssI12
(dp971
I9
g323
sI10
g352
sI11
g370
ssI13
(dp972
I8
g290
sI12
g376
sI14
g434
ssI14
(dp973
I2
g167
sI3
g185
sI7
g262
ssI15
(dp974
I13
g401
sI14
g407
sI7
g267
ssI16
(dp975
I32
g801
sI27
g718
sI35
g912
ssI17
(dp976
I24
g602
sI16
g458
sI20
g520
ssI18
(dp977
I21
g560
sI22
g578
sI23
g596
ssI19
(dp978
I27
g723
sI26
g675
sI35
g917
ssI20
(dp979
I24
g614
sI18
g489
sI19
g507
ssI21
(dp980
I24
g619
sI18
g501
sI20
g532
ssI22
(dp981
I24
g624
sI17
g471
sI20
g537
ssI23
(dp982
I24
g629
sI17
g483
sI20
g542
ssI24
(dp983
I21
g548
sI22
g566
sI23
g584
ssI25
(dp984
I24
g634
sI26
g670
sI35
g922
ssI26
(dp985
I0
g126
sI33
g846
sI34
g874
ssI27
(dp986
I25
g640
sI26
g685
sI35
g927
ssI28
(dp987
I27
g728
sI26
g680
sI35
g932
ssI29
(dp988
I8
g300
sI14
g419
sI15
g440
ssI30
(dp989
I0
g131
sI28
g751
sI29
g769
ssI31
(dp990
I27
g733
sI35
g937
sI30
g775
ssI32
(dp991
I27
g703
sI35
g892
sI31
g788
ssI33
(dp992
I32
g813
sI27
g713
sI35
g902
ssI34
(dp993
I8
g273
sI27
g708
sI35
g897
ssI35
(dp994
I0
g96
sI33
g841
sI34
g869
ssg329
(dp995
I33
g819
sI10
g330
sI35
g907
sssS'default_layout'
p996
S'dot'
p997
sS'node'
p998
(dp999
I0
g0
(g97
g98
(dp1000
tp1001
Rp1002
(dp1003
g110
g82
sbsI1
g0
(g97
g98
(dp1004
tp1005
Rp1006
(dp1007
g110
g82
sbsI2
g0
(g97
g98
(dp1008
tp1009
Rp1010
(dp1011
g110
g82
sbsI3
g0
(g97
g98
(dp1012
tp1013
Rp1014
(dp1015
g110
g82
sbsI4
g0
(g97
g98
(dp1016
tp1017
Rp1018
(dp1019
g110
g82
sbsI5
g0
(g97
g98
(dp1020
tp1021
Rp1022
(dp1023
g110
g82
sbsI6
g0
(g97
g98
(dp1024
tp1025
Rp1026
(dp1027
g110
g82
sbsI7
g0
(g97
g98
(dp1028
tp1029
Rp1030
(dp1031
g110
g82
sbsI8
g0
(g97
g98
(dp1032
tp1033
Rp1034
(dp1035
g110
g82
sbsI9
g0
(g97
g98
(dp1036
tp1037
Rp1038
(dp1039
g110
g82
sbsI10
g0
(g97
g98
(dp1040
tp1041
Rp1042
(dp1043
g110
g82
sbsI11
g0
(g97
g98
(dp1044
tp1045
Rp1046
(dp1047
g110
g82
sbsI12
g0
(g97
g98
(dp1048
tp1049
Rp1050
(dp1051
g110
g82
sbsI13
g0
(g97
g98
(dp1052
tp1053
Rp1054
(dp1055
g110
g82
sbsI14
g0
(g97
g98
(dp1056
tp1057
Rp1058
(dp1059
g110
g82
sbsI15
g0
(g97
g98
(dp1060
tp1061
Rp1062
(dp1063
g110
g82
sbsI16
g0
(g97
g98
(dp1064
tp1065
Rp1066
(dp1067
g110
g82
sbsI17
g0
(g97
g98
(dp1068
tp1069
Rp1070
(dp1071
g110
g82
sbsI18
g0
(g97
g98
(dp1072
tp1073
Rp1074
(dp1075
g110
g82
sbsI19
g0
(g97
g98
(dp1076
tp1077
Rp1078
(dp1079
g110
g82
sbsI20
g0
(g97
g98
(dp1080
tp1081
Rp1082
(dp1083
g110
g82
sbsI21
g0
(g97
g98
(dp1084
tp1085
Rp1086
(dp1087
g110
g82
sbsI22
g0
(g97
g98
(dp1088
tp1089
Rp1090
(dp1091
g110
g82
sbsI23
g0
(g97
g98
(dp1092
tp1093
Rp1094
(dp1095
g110
g82
sbsI24
g0
(g97
g98
(dp1096
tp1097
Rp1098
(dp1099
g110
g82
sbsI25
g0
(g97
g98
(dp1100
tp1101
Rp1102
(dp1103
g110
g82
sbsI26
g0
(g97
g98
(dp1104
tp1105
Rp1106
(dp1107
g110
g82
sbsI27
g0
(g97
g98
(dp1108
tp1109
Rp1110
(dp1111
g110
g82
sbsI28
g0
(g97
g98
(dp1112
tp1113
Rp1114
(dp1115
g110
g82
sbsI29
g0
(g97
g98
(dp1116
tp1117
Rp1118
(dp1119
g110
g82
sbsI30
g0
(g97
g98
(dp1120
tp1121
Rp1122
(dp1123
g110
g82
sbsI31
g0
(g97
g98
(dp1124
tp1125
Rp1126
(dp1127
g110
g82
sbsI32
g0
(g97
g98
(dp1128
tp1129
Rp1130
(dp1131
g110
g82
sbsI33
g0
(g97
g98
(dp1132
tp1133
Rp1134
(dp1135
g110
g82
sbsI34
g0
(g97
g98
(dp1136
tp1137
Rp1138
(dp1139
g110
g82
sbsI35
g0
(g97
g98
(dp1140
tp1141
Rp1142
(dp1143
g110
g82
sbsg329
g0
(g97
g98
(dp1144
tp1145
Rp1146
(dp1147
g110
g82
sbssS'inputs'
p1148
(dp1149
g59
g62
ssS'_state_dot_mask'
p1150
(dp1151
sS'outputs'
p1152
(dp1153
g8
g54
sg55
g58
sg63
g66
sg67
g70
sg71
g74
sg75
g78
ssS'succ'
p1154
g958
sS'_edge_label_defaults'
p1155
(dp1156
sS'_node_label_types'
p1157
g82
sS'_transition_dot_mask'
p1158
(dp1159
sS'states'
p1160
g0
(ctulip.transys.labeled_graphs
States
p1161
g2
Ntp1162
Rp1163
(dp1164
g89
g4
sS'_initial'
p1165
g0
(ctulip.transys.mathset
SubSet
p1166
g2
Ntp1167
Rp1168
(dp1169
S'_superset'
p1170
g1163
sS'_list'
p1171
(lp1172
sS'_set'
p1173
g9
((lp1174
g329
atp1175
Rp1176
sbsbsS'edge'
p1177
g958
sg89
(dp1178
sS'dot_node_shape'
p1179
(dp1180
S'normal'
p1181
S'ellipse'
p1182
ssS'default_export_fname'
p1183
S'mealy'
p1184
sb.