ccopy_reg
_reconstructor
p0
(ctulip.transys.machines
MealyMachine
p1
c__builtin__
object
p2
Ntp3
Rp4
(dp5
S'_transition_label_def'
p6
(dp7
S'loc'
p8
c__builtin__
set
p9
((lp10
S's420'
p11
aS's424'
p12
aS's207'
p13
aS's206'
p14
aS's205'
p15
aS's204'
p16
aS's203'
p17
aS's202'
p18
aS's201'
p19
aS's200'
p20
aS's209'
p21
aS's208'
p22
aS's57'
p23
aS's56'
p24
aS's55'
p25
aS's54'
p26
aS's53'
p27
aS's52'
p28
aS's51'
p29
aS's50'
p30
aS's59'
p31
aS's58'
p32
aS's142'
p33
aS's638'
p34
aS's639'
p35
aS's636'
p36
aS's637'
p37
aS's634'
p38
aS's635'
p39
aS's632'
p40
aS's633'
p41
aS's630'
p42
aS's631'
p43
aS's348'
p44
aS's349'
p45
aS's342'
p46
aS's343'
p47
aS's340'
p48
aS's341'
p49
aS's346'
p50
aS's347'
p51
aS's344'
p52
aS's345'
p53
aS's196'
p54
aS's748'
p55
aS's19'
p56
aS's708'
p57
aS's709'
p58
aS's702'
p59
aS's703'
p60
aS's700'
p61
aS's701'
p62
aS's706'
p63
aS's707'
p64
aS's704'
p65
aS's705'
p66
aS's713'
p67
aS's119'
p68
aS's118'
p69
aS's117'
p70
aS's116'
p71
aS's115'
p72
aS's114'
p73
aS's113'
p74
aS's112'
p75
aS's111'
p76
aS's110'
p77
aS's11'
p78
aS's10'
p79
aS's719'
p80
aS's493'
p81
aS's416'
p82
aS's417'
p83
aS's414'
p84
aS's415'
p85
aS's412'
p86
aS's413'
p87
aS's410'
p88
aS's411'
p89
aS's418'
p90
aS's419'
p91
aS's799'
p92
aS's798'
p93
aS's795'
p94
aS's794'
p95
aS's797'
p96
aS's796'
p97
aS's791'
p98
aS's790'
p99
aS's793'
p100
aS's792'
p101
aS's291'
p102
aS's780'
p103
aS's834'
p104
aS's835'
p105
aS's836'
p106
aS's837'
p107
aS's830'
p108
aS's938'
p109
aS's832'
p110
aS's833'
p111
aS's935'
p112
aS's934'
p113
aS's937'
p114
aS's936'
p115
aS's838'
p116
aS's839'
p117
aS's933'
p118
aS's932'
p119
aS's811'
p120
aS's562'
p121
aS's563'
p122
aS's249'
p123
aS's248'
p124
aS's566'
p125
aS's567'
p126
aS's564'
p127
aS's565'
p128
aS's243'
p129
aS's242'
p130
aS's241'
p131
aS's240'
p132
aS's247'
p133
aS's246'
p134
aS's245'
p135
aS's244'
p136
aS's841'
p137
aS's840'
p138
aS's843'
p139
aS's842'
p140
aS's845'
p141
aS's844'
p142
aS's847'
p143
aS's846'
p144
aS's849'
p145
aS's848'
p146
aS's818'
p147
aS's258'
p148
aS's819'
p149
aS's259'
p150
aS's742'
p151
aS's743'
p152
aS's308'
p153
aS's309'
p154
aS's306'
p155
aS's307'
p156
aS's304'
p157
aS's305'
p158
aS's302'
p159
aS's303'
p160
aS's300'
p161
aS's301'
p162
aS's665'
p163
aS's664'
p164
aS's667'
p165
aS's666'
p166
aS's661'
p167
aS's660'
p168
aS's663'
p169
aS's749'
p170
aS's746'
p171
aS's747'
p172
aS's744'
p173
aS's745'
p174
aS's669'
p175
aS's668'
p176
aS's740'
p177
aS's741'
p178
aS's153'
p179
aS's152'
p180
aS's151'
p181
aS's150'
p182
aS's157'
p183
aS's156'
p184
aS's155'
p185
aS's154'
p186
aS's159'
p187
aS's158'
p188
aS's190'
p189
aS's391'
p190
aS's390'
p191
aS's393'
p192
aS's8'
p193
aS's395'
p194
aS's394'
p195
aS's397'
p196
aS's396'
p197
aS's3'
p198
aS's2'
p199
aS's1'
p200
aS's0'
p201
aS's7'
p202
aS's6'
p203
aS's5'
p204
aS's4'
p205
aS's451'
p206
aS's593'
p207
aS's592'
p208
aS's591'
p209
aS's590'
p210
aS's597'
p211
aS's596'
p212
aS's595'
p213
aS's594'
p214
aS's599'
p215
aS's598'
p216
aS's9'
p217
aS's392'
p218
aS's326'
p219
aS's333'
p220
aS's698'
p221
aS's699'
p222
aS's16'
p223
aS's788'
p224
aS's690'
p225
aS's691'
p226
aS's692'
p227
aS's693'
p228
aS's694'
p229
aS's695'
p230
aS's696'
p231
aS's697'
p232
aS's399'
p233
aS's467'
p234
aS's256'
p235
aS's398'
p236
aS's61'
p237
aS's332'
p238
aS's257'
p239
aS's878'
p240
aS's879'
p241
aS's870'
p242
aS's871'
p243
aS's872'
p244
aS's873'
p245
aS's874'
p246
aS's875'
p247
aS's876'
p248
aS's877'
p249
aS's526'
p250
aS's527'
p251
aS's524'
p252
aS's525'
p253
aS's522'
p254
aS's523'
p255
aS's289'
p256
aS's288'
p257
aS's287'
p258
aS's286'
p259
aS's285'
p260
aS's284'
p261
aS's283'
p262
aS's282'
p263
aS's281'
p264
aS's280'
p265
aS's885'
p266
aS's884'
p267
aS's887'
p268
aS's886'
p269
aS's881'
p270
aS's448'
p271
aS's883'
p272
aS's882'
p273
aS's445'
p274
aS's444'
p275
aS's447'
p276
aS's446'
p277
aS's441'
p278
aS's440'
p279
aS's443'
p280
aS's442'
p281
aS's330'
p282
aS's143'
p283
aS's904'
p284
aS's905'
p285
aS's906'
p286
aS's907'
p287
aS's900'
p288
aS's901'
p289
aS's902'
p290
aS's903'
p291
aS's456'
p292
aS's908'
p293
aS's909'
p294
aS's232'
p295
aS's233'
p296
aS's230'
p297
aS's231'
p298
aS's236'
p299
aS's237'
p300
aS's234'
p301
aS's235'
p302
aS's238'
p303
aS's239'
p304
aS's82'
p305
aS's44'
p306
aS's45'
p307
aS's46'
p308
aS's47'
p309
aS's40'
p310
aS's41'
p311
aS's42'
p312
aS's43'
p313
aS's337'
p314
aS's48'
p315
aS's49'
p316
aS's85'
p317
aS's629'
p318
aS's628'
p319
aS's335'
p320
aS's621'
p321
aS's620'
p322
aS's623'
p323
aS's87'
p324
aS's625'
p325
aS's624'
p326
aS's627'
p327
aS's626'
p328
aS's355'
p329
aS's354'
p330
aS's357'
p331
aS's356'
p332
aS's351'
p333
aS's350'
p334
aS's353'
p335
aS's352'
p336
aS's359'
p337
aS's358'
p338
aS's715'
p339
aS's714'
p340
aS's717'
p341
aS's716'
p342
aS's711'
p343
aS's710'
p344
aS's498'
p345
aS's712'
p346
aS's496'
p347
aS's497'
p348
aS's494'
p349
aS's495'
p350
aS's492'
p351
aS's718'
p352
aS's490'
p353
aS's491'
p354
aS's658'
p355
aS's659'
p356
aS's654'
p357
aS's655'
p358
aS's656'
p359
aS's657'
p360
aS's650'
p361
aS's651'
p362
aS's652'
p363
aS's653'
p364
aS's128'
p365
aS's129'
p366
aS's122'
p367
aS's123'
p368
aS's120'
p369
aS's121'
p370
aS's126'
p371
aS's127'
p372
aS's124'
p373
aS's125'
p374
aS's401'
p375
aS's400'
p376
aS's403'
p377
aS's402'
p378
aS's405'
p379
aS's404'
p380
aS's407'
p381
aS's406'
p382
aS's409'
p383
aS's408'
p384
aS's229'
p385
aS's604'
p386
aS's827'
p387
aS's826'
p388
aS's825'
p389
aS's824'
p390
aS's823'
p391
aS's38'
p392
aS's821'
p393
aS's820'
p394
aS's35'
p395
aS's34'
p396
aS's37'
p397
aS's36'
p398
aS's31'
p399
aS's30'
p400
aS's946'
p401
aS's32'
p402
aS's276'
p403
aS's277'
p404
aS's274'
p405
aS's275'
p406
aS's272'
p407
aS's273'
p408
aS's270'
p409
aS's271'
p410
aS's278'
p411
aS's279'
p412
aS's474'
p413
aS's475'
p414
aS's476'
p415
aS's477'
p416
aS's470'
p417
aS's471'
p418
aS's472'
p419
aS's473'
p420
aS's575'
p421
aS's574'
p422
aS's577'
p423
aS's576'
p424
aS's478'
p425
aS's479'
p426
aS's573'
p427
aS's572'
p428
aS's948'
p429
aS's949'
p430
aS's319'
p431
aS's318'
p432
aS's469'
p433
aS's311'
p434
aS's39'
p435
aS's313'
p436
aS's312'
p437
aS's315'
p438
aS's314'
p439
aS's317'
p440
aS's316'
p441
aS's18'
p442
aS's940'
p443
aS's468'
p444
aS's941'
p445
aS's942'
p446
aS's610'
p447
aS's758'
p448
aS's612'
p449
aS's943'
p450
aS's614'
p451
aS's615'
p452
aS's616'
p453
aS's617'
p454
aS's618'
p455
aS's619'
p456
aS's753'
p457
aS's752'
p458
aS's755'
p459
aS's754'
p460
aS's757'
p461
aS's662'
p462
aS's33'
p463
aS's168'
p464
aS's169'
p465
aS's166'
p466
aS's167'
p467
aS's164'
p468
aS's165'
p469
aS's162'
p470
aS's163'
p471
aS's160'
p472
aS's161'
p473
aS's368'
p474
aS's369'
p475
aS's364'
p476
aS's365'
p477
aS's366'
p478
aS's367'
p479
aS's360'
p480
aS's361'
p481
aS's362'
p482
aS's363'
p483
aS's944'
p484
aS's822'
p485
aS's602'
p486
aS's221'
p487
aS's220'
p488
aS's148'
p489
aS's728'
p490
aS's729'
p491
aS's149'
p492
aS's724'
p493
aS's725'
p494
aS's726'
p495
aS's727'
p496
aS's720'
p497
aS's721'
p498
aS's722'
p499
aS's723'
p500
aS's689'
p501
aS's688'
p502
aS's683'
p503
aS's682'
p504
aS's681'
p505
aS's680'
p506
aS's687'
p507
aS's686'
p508
aS's685'
p509
aS's684'
p510
aS's869'
p511
aS's868'
p512
aS's863'
p513
aS's862'
p514
aS's861'
p515
aS's860'
p516
aS's867'
p517
aS's866'
p518
aS's865'
p519
aS's864'
p520
aS's531'
p521
aS's530'
p522
aS's533'
p523
aS's532'
p524
aS's535'
p525
aS's534'
p526
aS's537'
p527
aS's536'
p528
aS's539'
p529
aS's538'
p530
aS's578'
p531
aS's438'
p532
aS's439'
p533
aS's72'
p534
aS's945'
p535
aS's430'
p536
aS's431'
p537
aS's432'
p538
aS's433'
p539
aS's434'
p540
aS's435'
p541
aS's436'
p542
aS's437'
p543
aS's184'
p544
aS's185'
p545
aS's186'
p546
aS's187'
p547
aS's180'
p548
aS's181'
p549
aS's182'
p550
aS's183'
p551
aS's188'
p552
aS's189'
p553
aS's917'
p554
aS's916'
p555
aS's915'
p556
aS's914'
p557
aS's913'
p558
aS's912'
p559
aS's911'
p560
aS's910'
p561
aS's571'
p562
aS's521'
p563
aS's919'
p564
aS's918'
p565
aS's388'
p566
aS's170'
p567
aS's544'
p568
aS's545'
p569
aS's546'
p570
aS's547'
p571
aS's540'
p572
aS's541'
p573
aS's542'
p574
aS's543'
p575
aS's225'
p576
aS's224'
p577
aS's227'
p578
aS's226'
p579
aS's548'
p580
aS's549'
p581
aS's223'
p582
aS's222'
p583
aS's79'
p584
aS's78'
p585
aS's528'
p586
aS's71'
p587
aS's70'
p588
aS's73'
p589
aS's529'
p590
aS's75'
p591
aS's74'
p592
aS's77'
p593
aS's76'
p594
aS's93'
p595
aS's92'
p596
aS's91'
p597
aS's90'
p598
aS's97'
p599
aS's96'
p600
aS's95'
p601
aS's94'
p602
aS's328'
p603
aS's449'
p604
aS's99'
p605
aS's98'
p606
aS's459'
p607
aS's880'
p608
aS's320'
p609
aS's321'
p610
aS's322'
p611
aS's323'
p612
aS's324'
p613
aS's325'
p614
aS's760'
p615
aS's761'
p616
aS's762'
p617
aS's763'
p618
aS's829'
p619
aS's228'
p620
aS's766'
p621
aS's767'
p622
aS's481'
p623
aS's480'
p624
aS's483'
p625
aS's327'
p626
aS's485'
p627
aS's484'
p628
aS's487'
p629
aS's486'
p630
aS's135'
p631
aS's134'
p632
aS's137'
p633
aS's136'
p634
aS's131'
p635
aS's130'
p636
aS's133'
p637
aS's329'
p638
aS's647'
p639
aS's646'
p640
aS's645'
p641
aS's644'
p642
aS's643'
p643
aS's642'
p644
aS's641'
p645
aS's640'
p646
aS's828'
p647
aS's765'
p648
aS's69'
p649
aS's570'
p650
aS's812'
p651
aS's813'
p652
aS's810'
p653
aS's958'
p654
aS's816'
p655
aS's817'
p656
aS's814'
p657
aS's815'
p658
aS's953'
p659
aS's952'
p660
aS's951'
p661
aS's950'
p662
aS's957'
p663
aS's956'
p664
aS's955'
p665
aS's954'
p666
aS's261'
p667
aS's260'
p668
aS's263'
p669
aS's262'
p670
aS's265'
p671
aS's264'
p672
aS's267'
p673
aS's310'
p674
aS's269'
p675
aS's268'
p676
aS's508'
p677
aS's509'
p678
aS's465'
p679
aS's464'
p680
aS's463'
p681
aS's462'
p682
aS's461'
p683
aS's460'
p684
aS's500'
p685
aS's501'
p686
aS's502'
p687
aS's503'
p688
aS's504'
p689
aS's505'
p690
aS's506'
p691
aS's507'
p692
aS's947'
p693
aS's959'
p694
aS's939'
p695
aS's214'
p696
aS's215'
p697
aS's216'
p698
aS's217'
p699
aS's210'
p700
aS's211'
p701
aS's212'
p702
aS's213'
p703
aS's218'
p704
aS's219'
p705
aS's22'
p706
aS's23'
p707
aS's20'
p708
aS's21'
p709
aS's26'
p710
aS's27'
p711
aS's24'
p712
aS's25'
p713
aS's520'
p714
aS's28'
p715
aS's29'
p716
aS's603'
p717
aS's489'
p718
aS's601'
p719
aS's600'
p720
aS's607'
p721
aS's606'
p722
aS's605'
p723
aS's488'
p724
aS's609'
p725
aS's608'
p726
aS's179'
p727
aS's178'
p728
aS's171'
p729
aS's764'
p730
aS's173'
p731
aS's172'
p732
aS's175'
p733
aS's174'
p734
aS's177'
p735
aS's831'
p736
aS's379'
p737
aS's378'
p738
aS's377'
p739
aS's376'
p740
aS's375'
p741
aS's374'
p742
aS's373'
p743
aS's372'
p744
aS's371'
p745
aS's370'
p746
aS's768'
p747
aS's769'
p748
aS's482'
p749
aS's931'
p750
aS's930'
p751
aS's739'
p752
aS's738'
p753
aS's737'
p754
aS's736'
p755
aS's735'
p756
aS's734'
p757
aS's733'
p758
aS's732'
p759
aS's731'
p760
aS's730'
p761
aS's108'
p762
aS's109'
p763
aS's104'
p764
aS's105'
p765
aS's106'
p766
aS's107'
p767
aS's100'
p768
aS's101'
p769
aS's102'
p770
aS's103'
p771
aS's759'
p772
aS's649'
p773
aS's611'
p774
aS's132'
p775
aS's466'
p776
aS's613'
p777
aS's782'
p778
aS's783'
p779
aS's429'
p780
aS's428'
p781
aS's786'
p782
aS's787'
p783
aS's784'
p784
aS's785'
p785
aS's423'
p786
aS's139'
p787
aS's421'
p788
aS's789'
p789
aS's427'
p790
aS's426'
p791
aS's425'
p792
aS's138'
p793
aS's197'
p794
aS's751'
p795
aS's195'
p796
aS's194'
p797
aS's193'
p798
aS's192'
p799
aS's191'
p800
aS's750'
p801
aS's622'
p802
aS's199'
p803
aS's198'
p804
aS's922'
p805
aS's923'
p806
aS's920'
p807
aS's921'
p808
aS's926'
p809
aS's927'
p810
aS's924'
p811
aS's925'
p812
aS's13'
p813
aS's12'
p814
aS's928'
p815
aS's929'
p816
aS's17'
p817
aS's560'
p818
aS's15'
p819
aS's14'
p820
aS's561'
p821
aS's756'
p822
aS's176'
p823
aS's557'
p824
aS's556'
p825
aS's555'
p826
aS's554'
p827
aS's553'
p828
aS's552'
p829
aS's551'
p830
aS's550'
p831
aS's250'
p832
aS's251'
p833
aS's252'
p834
aS's253'
p835
aS's254'
p836
aS's255'
p837
aS's559'
p838
aS's558'
p839
aS's856'
p840
aS's857'
p841
aS's854'
p842
aS's855'
p843
aS's852'
p844
aS's853'
p845
aS's850'
p846
aS's851'
p847
aS's66'
p848
aS's67'
p849
aS's64'
p850
aS's65'
p851
aS's62'
p852
aS's63'
p853
aS's858'
p854
aS's859'
p855
aS's60'
p856
aS's569'
p857
aS's80'
p858
aS's81'
p859
aS's331'
p860
aS's83'
p861
aS's84'
p862
aS's336'
p863
aS's86'
p864
aS's334'
p865
aS's88'
p866
aS's89'
p867
aS's339'
p868
aS's338'
p869
aS's68'
p870
aS's579'
p871
aS's773'
p872
aS's772'
p873
aS's771'
p874
aS's770'
p875
aS's777'
p876
aS's776'
p877
aS's775'
p878
aS's774'
p879
aS's779'
p880
aS's778'
p881
aS's450'
p882
aS's140'
p883
aS's141'
p884
aS's678'
p885
aS's679'
p886
aS's144'
p887
aS's145'
p888
aS's146'
p889
aS's147'
p890
aS's672'
p891
aS's673'
p892
aS's670'
p893
aS's671'
p894
aS's676'
p895
aS's677'
p896
aS's674'
p897
aS's675'
p898
aS's386'
p899
aS's387'
p900
aS's384'
p901
aS's385'
p902
aS's382'
p903
aS's383'
p904
aS's380'
p905
aS's381'
p906
aS's499'
p907
aS's389'
p908
aS's568'
p909
aS's458'
p910
aS's580'
p911
aS's581'
p912
aS's582'
p913
aS's583'
p914
aS's584'
p915
aS's585'
p916
aS's586'
p917
aS's587'
p918
aS's588'
p919
aS's589'
p920
aS's899'
p921
aS's889'
p922
aS's809'
p923
aS's808'
p924
aS's805'
p925
aS's804'
p926
aS's807'
p927
aS's806'
p928
aS's801'
p929
aS's800'
p930
aS's803'
p931
aS's802'
p932
aS's781'
p933
aS's298'
p934
aS's299'
p935
aS's294'
p936
aS's295'
p937
aS's296'
p938
aS's297'
p939
aS's290'
p940
aS's888'
p941
aS's292'
p942
aS's293'
p943
aS's648'
p944
aS's453'
p945
aS's519'
p946
aS's518'
p947
aS's266'
p948
aS's457'
p949
aS's454'
p950
aS's455'
p951
aS's513'
p952
aS's512'
p953
aS's511'
p954
aS's510'
p955
aS's517'
p956
aS's516'
p957
aS's515'
p958
aS's514'
p959
aS's898'
p960
aS's452'
p961
aS's422'
p962
aS's892'
p963
aS's893'
p964
aS's890'
p965
aS's891'
p966
aS's896'
p967
aS's897'
p968
aS's894'
p969
aS's895'
p970
atp971
Rp972
sS'noHXfreeze'
p973
g9
((lp974
I0
aI1
atp975
Rp976
sS'level'
p977
g9
((lp978
I0
aI1
aI2
atp979
Rp980
sS'tempCold'
p981
g9
((lp982
I0
aI1
atp983
Rp984
sS'tempGood'
p985
g9
((lp986
I0
aI1
atp987
Rp988
sS'trackfl'
p989
g9
((lp990
I0
aI1
aI2
aI3
atp991
Rp992
sS'tempHot'
p993
g9
((lp994
I0
aI1
atp995
Rp996
ssS'_node_label_defaults'
p997
(dp998
sS'_state_label_def'
p999
(dp1000
sS'_edge_label_types'
p1001
g7
sS'transitions'
p1002
g0
(ctulip.transys.labeled_graphs
Transitions
p1003
g2
Ntp1004
Rp1005
(dp1006
S'graph'
p1007
g4
sS'_deterministic'
p1008
I00
sbsS'state_vars'
p1009
(dp1010
sS'pred'
p1011
(dp1012
I0
(dp1013
I139
(dp1014
I0
g0
(ctulip.transys.mathset
TypedDict
p1015
c__builtin__
dict
p1016
(dp1017
S'loc'
p1018
g370
sS'noHXfreeze'
p1019
I1
sS'tempCold'
p1020
I0
sS'level'
p1021
I0
sS'trackfl'
p1022
I1
sS'tempHot'
p1023
I0
sS'tempGood'
p1024
I1
stp1025
Rp1026
(dp1027
S'allowed_values'
p1028
g7
sbssI69
(dp1029
I0
g0
(g1015
g1016
(dp1030
g1018
g370
sg1019
I1
sg1020
I0
sg1021
I0
sg1022
I1
sg1023
I0
sg1024
I1
stp1031
Rp1032
(dp1033
g1028
g7
sbssI70
(dp1034
I0
g0
(g1015
g1016
(dp1035
g1018
g370
sg1019
I1
sg1020
I0
sg1021
I0
sg1022
I1
sg1023
I0
sg1024
I1
stp1036
Rp1037
(dp1038
g1028
g7
sbssI143
(dp1039
I0
g0
(g1015
g1016
(dp1040
g1018
g370
sg1019
I1
sg1020
I0
sg1021
I0
sg1022
I1
sg1023
I0
sg1024
I1
stp1041
Rp1042
(dp1043
g1028
g7
sbsssI1
(dp1044
I0
(dp1045
I0
g0
(g1015
g1016
(dp1046
S'loc'
p1047
g374
sS'noHXfreeze'
p1048
I0
sS'tempCold'
p1049
I0
sS'level'
p1050
I0
sS'trackfl'
p1051
I1
sS'tempHot'
p1052
I0
sS'tempGood'
p1053
I1
stp1054
Rp1055
(dp1056
g1028
g7
sbssI141
(dp1057
I0
g0
(g1015
g1016
(dp1058
g1047
g374
sg1048
I0
sg1049
I0
sg1050
I0
sg1051
I1
sg1052
I0
sg1053
I1
stp1059
Rp1060
(dp1061
g1028
g7
sbssI142
(dp1062
I0
g0
(g1015
g1016
(dp1063
g1047
g374
sg1048
I0
sg1049
I0
sg1050
I0
sg1051
I1
sg1052
I0
sg1053
I1
stp1064
Rp1065
(dp1066
g1028
g7
sbsssI2
(dp1067
S'Sinit'
p1068
(dp1069
I0
g0
(g1015
g1016
(dp1070
S'loc'
p1071
g770
sS'noHXfreeze'
p1072
I0
sS'tempCold'
p1073
I0
sS'level'
p1074
I1
sS'trackfl'
p1075
I1
sS'tempHot'
p1076
I0
sS'tempGood'
p1077
I1
stp1078
Rp1079
(dp1080
g1028
g7
sbssI130
(dp1081
I0
g0
(g1015
g1016
(dp1082
g1071
g770
sg1072
I0
sg1073
I0
sg1074
I1
sg1075
I1
sg1076
I0
sg1077
I1
stp1083
Rp1084
(dp1085
g1028
g7
sbsssI3
(dp1086
I120
(dp1087
I0
g0
(g1015
g1016
(dp1088
S'loc'
p1089
g305
sS'noHXfreeze'
p1090
I1
sS'tempCold'
p1091
I1
sS'level'
p1092
I0
sS'trackfl'
p1093
I2
sS'tempHot'
p1094
I0
sS'tempGood'
p1095
I0
stp1096
Rp1097
(dp1098
g1028
g7
sbssI118
(dp1099
I0
g0
(g1015
g1016
(dp1100
g1089
g305
sg1090
I1
sg1091
I1
sg1092
I0
sg1093
I2
sg1094
I0
sg1095
I0
stp1101
Rp1102
(dp1103
g1028
g7
sbssI119
(dp1104
I0
g0
(g1015
g1016
(dp1105
g1089
g305
sg1090
I1
sg1091
I1
sg1092
I0
sg1093
I2
sg1094
I0
sg1095
I0
stp1106
Rp1107
(dp1108
g1028
g7
sbsssI4
(dp1109
I120
(dp1110
I0
g0
(g1015
g1016
(dp1111
S'loc'
p1112
g305
sS'noHXfreeze'
p1113
I1
sS'tempCold'
p1114
I1
sS'level'
p1115
I1
sS'trackfl'
p1116
I2
sS'tempHot'
p1117
I0
sS'tempGood'
p1118
I0
stp1119
Rp1120
(dp1121
g1028
g7
sbssI118
(dp1122
I0
g0
(g1015
g1016
(dp1123
g1112
g305
sg1113
I1
sg1114
I1
sg1115
I1
sg1116
I2
sg1117
I0
sg1118
I0
stp1124
Rp1125
(dp1126
g1028
g7
sbssI119
(dp1127
I0
g0
(g1015
g1016
(dp1128
g1112
g305
sg1113
I1
sg1114
I1
sg1115
I1
sg1116
I2
sg1117
I0
sg1118
I0
stp1129
Rp1130
(dp1131
g1028
g7
sbsssI5
(dp1132
I4
(dp1133
I0
g0
(g1015
g1016
(dp1134
S'loc'
p1135
g861
sS'noHXfreeze'
p1136
I0
sS'tempCold'
p1137
I1
sS'level'
p1138
I0
sS'trackfl'
p1139
I2
sS'tempHot'
p1140
I0
sS'tempGood'
p1141
I0
stp1142
Rp1143
(dp1144
g1028
g7
sbssI117
(dp1145
I0
g0
(g1015
g1016
(dp1146
g1135
g861
sg1136
I0
sg1137
I1
sg1138
I0
sg1139
I2
sg1140
I0
sg1141
I0
stp1147
Rp1148
(dp1149
g1028
g7
sbsssI6
(dp1150
I8
(dp1151
I0
g0
(g1015
g1016
(dp1152
S'loc'
p1153
g324
sS'noHXfreeze'
p1154
I0
sS'tempCold'
p1155
I0
sS'level'
p1156
I1
sS'trackfl'
p1157
I3
sS'tempHot'
p1158
I0
sS'tempGood'
p1159
I0
stp1160
Rp1161
(dp1162
g1028
g7
sbsssI7
(dp1163
I115
(dp1164
I0
g0
(g1015
g1016
(dp1165
S'loc'
p1166
g859
sS'noHXfreeze'
p1167
I0
sS'tempCold'
p1168
I1
sS'level'
p1169
I1
sS'trackfl'
p1170
I2
sS'tempHot'
p1171
I0
sS'tempGood'
p1172
I0
stp1173
Rp1174
(dp1175
g1028
g7
sbssI5
(dp1176
I0
g0
(g1015
g1016
(dp1177
g1166
g859
sg1167
I0
sg1168
I1
sg1169
I1
sg1170
I2
sg1171
I0
sg1172
I0
stp1178
Rp1179
(dp1180
g1028
g7
sbsssI8
(dp1181
I115
(dp1182
I0
g0
(g1015
g1016
(dp1183
S'loc'
p1184
g864
sS'noHXfreeze'
p1185
I0
sS'tempCold'
p1186
I0
sS'level'
p1187
I0
sS'trackfl'
p1188
I3
sS'tempHot'
p1189
I0
sS'tempGood'
p1190
I0
stp1191
Rp1192
(dp1193
g1028
g7
sbssI3
(dp1194
I0
g0
(g1015
g1016
(dp1195
g1184
g864
sg1185
I0
sg1186
I0
sg1187
I0
sg1188
I3
sg1189
I0
sg1190
I0
stp1196
Rp1197
(dp1198
g1028
g7
sbssI5
(dp1199
I0
g0
(g1015
g1016
(dp1200
g1184
g864
sg1185
I0
sg1186
I0
sg1187
I0
sg1188
I3
sg1189
I0
sg1190
I0
stp1201
Rp1202
(dp1203
g1028
g7
sbsssI9
(dp1204
I96
(dp1205
I0
g0
(g1015
g1016
(dp1206
S'loc'
p1207
g602
sS'noHXfreeze'
p1208
I1
sS'tempCold'
p1209
I0
sS'level'
p1210
I0
sS'trackfl'
p1211
I3
sS'tempHot'
p1212
I0
sS'tempGood'
p1213
I0
stp1214
Rp1215
(dp1216
g1028
g7
sbssI109
(dp1217
I0
g0
(g1015
g1016
(dp1218
g1207
g602
sg1208
I1
sg1209
I0
sg1210
I0
sg1211
I3
sg1212
I0
sg1213
I0
stp1219
Rp1220
(dp1221
g1028
g7
sbssI110
(dp1222
I0
g0
(g1015
g1016
(dp1223
g1207
g602
sg1208
I1
sg1209
I0
sg1210
I0
sg1211
I3
sg1212
I0
sg1213
I0
stp1224
Rp1225
(dp1226
g1028
g7
sbssI111
(dp1227
I0
g0
(g1015
g1016
(dp1228
g1207
g602
sg1208
I1
sg1209
I0
sg1210
I0
sg1211
I3
sg1212
I0
sg1213
I0
stp1229
Rp1230
(dp1231
g1028
g7
sbssI94
(dp1232
I0
g0
(g1015
g1016
(dp1233
g1207
g602
sg1208
I1
sg1209
I0
sg1210
I0
sg1211
I3
sg1212
I0
sg1213
I0
stp1234
Rp1235
(dp1236
g1028
g7
sbssI95
(dp1237
I0
g0
(g1015
g1016
(dp1238
g1207
g602
sg1208
I1
sg1209
I0
sg1210
I0
sg1211
I3
sg1212
I0
sg1213
I0
stp1239
Rp1240
(dp1241
g1028
g7
sbsssI10
(dp1242
I88
(dp1243
I0
g0
(g1015
g1016
(dp1244
S'loc'
p1245
g766
sS'noHXfreeze'
p1246
I1
sS'tempCold'
p1247
I0
sS'level'
p1248
I0
sS'trackfl'
p1249
I1
sS'tempHot'
p1250
I0
sS'tempGood'
p1251
I1
stp1252
Rp1253
(dp1254
g1028
g7
sbssI89
(dp1255
I0
g0
(g1015
g1016
(dp1256
g1245
g766
sg1246
I1
sg1247
I0
sg1248
I0
sg1249
I1
sg1250
I0
sg1251
I1
stp1257
Rp1258
(dp1259
g1028
g7
sbssI90
(dp1260
I0
g0
(g1015
g1016
(dp1261
g1245
g766
sg1246
I1
sg1247
I0
sg1248
I0
sg1249
I1
sg1250
I0
sg1251
I1
stp1262
Rp1263
(dp1264
g1028
g7
sbsssI11
(dp1265
I87
(dp1266
I0
g0
(g1015
g1016
(dp1267
S'loc'
p1268
g767
sS'noHXfreeze'
p1269
I0
sS'tempCold'
p1270
I0
sS'level'
p1271
I2
sS'trackfl'
p1272
I1
sS'tempHot'
p1273
I0
sS'tempGood'
p1274
I1
stp1275
Rp1276
(dp1277
g1028
g7
sbsssI12
(dp1278
I32
(dp1279
I0
g0
(g1015
g1016
(dp1280
S'loc'
p1281
g634
sS'noHXfreeze'
p1282
I1
sS'tempCold'
p1283
I0
sS'level'
p1284
I0
sS'trackfl'
p1285
I1
sS'tempHot'
p1286
I0
sS'tempGood'
p1287
I1
stp1288
Rp1289
(dp1290
g1028
g7
sbssI48
(dp1291
I0
g0
(g1015
g1016
(dp1292
g1281
g634
sg1282
I1
sg1283
I0
sg1284
I0
sg1285
I1
sg1286
I0
sg1287
I1
stp1293
Rp1294
(dp1295
g1028
g7
sbssI52
(dp1296
I0
g0
(g1015
g1016
(dp1297
g1281
g634
sg1282
I1
sg1283
I0
sg1284
I0
sg1285
I1
sg1286
I0
sg1287
I1
stp1298
Rp1299
(dp1300
g1028
g7
sbssI46
(dp1301
I0
g0
(g1015
g1016
(dp1302
g1281
g634
sg1282
I1
sg1283
I0
sg1284
I0
sg1285
I1
sg1286
I0
sg1287
I1
stp1303
Rp1304
(dp1305
g1028
g7
sbsssI13
(dp1306
I43
(dp1307
I0
g0
(g1015
g1016
(dp1308
S'loc'
p1309
g489
sS'noHXfreeze'
p1310
I1
sS'tempCold'
p1311
I0
sS'level'
p1312
I0
sS'trackfl'
p1313
I3
sS'tempHot'
p1314
I0
sS'tempGood'
p1315
I0
stp1316
Rp1317
(dp1318
g1028
g7
sbssI44
(dp1319
I0
g0
(g1015
g1016
(dp1320
g1309
g489
sg1310
I1
sg1311
I0
sg1312
I0
sg1313
I3
sg1314
I0
sg1315
I0
stp1321
Rp1322
(dp1323
g1028
g7
sbsssI14
(dp1324
I43
(dp1325
I0
g0
(g1015
g1016
(dp1326
S'loc'
p1327
g489
sS'noHXfreeze'
p1328
I1
sS'tempCold'
p1329
I0
sS'level'
p1330
I1
sS'trackfl'
p1331
I3
sS'tempHot'
p1332
I0
sS'tempGood'
p1333
I0
stp1334
Rp1335
(dp1336
g1028
g7
sbssI44
(dp1337
I0
g0
(g1015
g1016
(dp1338
g1327
g489
sg1328
I1
sg1329
I0
sg1330
I1
sg1331
I3
sg1332
I0
sg1333
I0
stp1339
Rp1340
(dp1341
g1028
g7
sbsssI15
(dp1342
I18
(dp1343
I0
g0
(g1015
g1016
(dp1344
S'loc'
p1345
g183
sS'noHXfreeze'
p1346
I1
sS'tempCold'
p1347
I0
sS'level'
p1348
I1
sS'trackfl'
p1349
I0
sS'tempHot'
p1350
I1
sS'tempGood'
p1351
I0
stp1352
Rp1353
(dp1354
g1028
g7
sbssI27
(dp1355
I0
g0
(g1015
g1016
(dp1356
g1345
g183
sg1346
I1
sg1347
I0
sg1348
I1
sg1349
I0
sg1350
I1
sg1351
I0
stp1357
Rp1358
(dp1359
g1028
g7
sbssI26
(dp1360
I0
g0
(g1015
g1016
(dp1361
g1345
g183
sg1346
I1
sg1347
I0
sg1348
I1
sg1349
I0
sg1350
I1
sg1351
I0
stp1362
Rp1363
(dp1364
g1028
g7
sbsssI16
(dp1365
I17
(dp1366
I0
g0
(g1015
g1016
(dp1367
S'loc'
p1368
g890
sS'noHXfreeze'
p1369
I0
sS'tempCold'
p1370
I0
sS'level'
p1371
I1
sS'trackfl'
p1372
I3
sS'tempHot'
p1373
I0
sS'tempGood'
p1374
I0
stp1375
Rp1376
(dp1377
g1028
g7
sbsssI17
(dp1378
I23
(dp1379
I0
g0
(g1015
g1016
(dp1380
S'loc'
p1381
g180
sS'noHXfreeze'
p1382
I0
sS'tempCold'
p1383
I0
sS'level'
p1384
I1
sS'trackfl'
p1385
I3
sS'tempHot'
p1386
I0
sS'tempGood'
p1387
I0
stp1388
Rp1389
(dp1390
g1028
g7
sbsssI18
(dp1391
I24
(dp1392
I0
g0
(g1015
g1016
(dp1393
S'loc'
p1394
g188
sS'noHXfreeze'
p1395
I0
sS'tempCold'
p1396
I0
sS'level'
p1397
I0
sS'trackfl'
p1398
I0
sS'tempHot'
p1399
I1
sS'tempGood'
p1400
I0
stp1401
Rp1402
(dp1403
g1028
g7
sbssI25
(dp1404
I0
g0
(g1015
g1016
(dp1405
g1394
g188
sg1395
I0
sg1396
I0
sg1397
I0
sg1398
I0
sg1399
I1
sg1400
I0
stp1406
Rp1407
(dp1408
g1028
g7
sbssI19
(dp1409
I0
g0
(g1015
g1016
(dp1410
g1394
g188
sg1395
I0
sg1396
I0
sg1397
I0
sg1398
I0
sg1399
I1
sg1400
I0
stp1411
Rp1412
(dp1413
g1028
g7
sbssI15
(dp1414
I0
g0
(g1015
g1016
(dp1415
g1394
g188
sg1395
I0
sg1396
I0
sg1397
I0
sg1398
I0
sg1399
I1
sg1400
I0
stp1416
Rp1417
(dp1418
g1028
g7
sbsssI19
(dp1419
I28
(dp1420
I0
g0
(g1015
g1016
(dp1421
S'loc'
p1422
g184
sS'noHXfreeze'
p1423
I0
sS'tempCold'
p1424
I0
sS'level'
p1425
I0
sS'trackfl'
p1426
I0
sS'tempHot'
p1427
I1
sS'tempGood'
p1428
I0
stp1429
Rp1430
(dp1431
g1028
g7
sbsssI20
(dp1432
I21
(dp1433
I0
g0
(g1015
g1016
(dp1434
S'loc'
p1435
g890
sS'noHXfreeze'
p1436
I0
sS'tempCold'
p1437
I0
sS'level'
p1438
I2
sS'trackfl'
p1439
I3
sS'tempHot'
p1440
I0
sS'tempGood'
p1441
I0
stp1442
Rp1443
(dp1444
g1028
g7
sbsssI21
(dp1445
I22
(dp1446
I0
g0
(g1015
g1016
(dp1447
S'loc'
p1448
g180
sS'noHXfreeze'
p1449
I0
sS'tempCold'
p1450
I0
sS'level'
p1451
I2
sS'trackfl'
p1452
I3
sS'tempHot'
p1453
I0
sS'tempGood'
p1454
I0
stp1455
Rp1456
(dp1457
g1028
g7
sbsssI22
(dp1458
I24
(dp1459
I0
g0
(g1015
g1016
(dp1460
S'loc'
p1461
g185
sS'noHXfreeze'
p1462
I0
sS'tempCold'
p1463
I0
sS'level'
p1464
I2
sS'trackfl'
p1465
I3
sS'tempHot'
p1466
I0
sS'tempGood'
p1467
I0
stp1468
Rp1469
(dp1470
g1028
g7
sbssI25
(dp1471
I0
g0
(g1015
g1016
(dp1472
g1461
g185
sg1462
I0
sg1463
I0
sg1464
I2
sg1465
I3
sg1466
I0
sg1467
I0
stp1473
Rp1474
(dp1475
g1028
g7
sbsssI23
(dp1476
I24
(dp1477
I0
g0
(g1015
g1016
(dp1478
S'loc'
p1479
g185
sS'noHXfreeze'
p1480
I0
sS'tempCold'
p1481
I0
sS'level'
p1482
I1
sS'trackfl'
p1483
I3
sS'tempHot'
p1484
I0
sS'tempGood'
p1485
I0
stp1486
Rp1487
(dp1488
g1028
g7
sbssI25
(dp1489
I0
g0
(g1015
g1016
(dp1490
g1479
g185
sg1480
I0
sg1481
I0
sg1482
I1
sg1483
I3
sg1484
I0
sg1485
I0
stp1491
Rp1492
(dp1493
g1028
g7
sbssI21
(dp1494
I0
g0
(g1015
g1016
(dp1495
g1479
g185
sg1480
I0
sg1481
I0
sg1482
I1
sg1483
I3
sg1484
I0
sg1485
I0
stp1496
Rp1497
(dp1498
g1028
g7
sbssI22
(dp1499
I0
g0
(g1015
g1016
(dp1500
g1479
g185
sg1480
I0
sg1481
I0
sg1482
I1
sg1483
I3
sg1484
I0
sg1485
I0
stp1501
Rp1502
(dp1503
g1028
g7
sbssI15
(dp1504
I0
g0
(g1015
g1016
(dp1505
g1479
g185
sg1480
I0
sg1481
I0
sg1482
I1
sg1483
I3
sg1484
I0
sg1485
I0
stp1506
Rp1507
(dp1508
g1028
g7
sbsssI24
(dp1509
I18
(dp1510
I0
g0
(g1015
g1016
(dp1511
S'loc'
p1512
g183
sS'noHXfreeze'
p1513
I1
sS'tempCold'
p1514
I0
sS'level'
p1515
I2
sS'trackfl'
p1516
I0
sS'tempHot'
p1517
I1
sS'tempGood'
p1518
I0
stp1519
Rp1520
(dp1521
g1028
g7
sbssI27
(dp1522
I0
g0
(g1015
g1016
(dp1523
g1512
g183
sg1513
I1
sg1514
I0
sg1515
I2
sg1516
I0
sg1517
I1
sg1518
I0
stp1524
Rp1525
(dp1526
g1028
g7
sbssI26
(dp1527
I0
g0
(g1015
g1016
(dp1528
g1512
g183
sg1513
I1
sg1514
I0
sg1515
I2
sg1516
I0
sg1517
I1
sg1518
I0
stp1529
Rp1530
(dp1531
g1028
g7
sbsssI25
(dp1532
I18
(dp1533
I0
g0
(g1015
g1016
(dp1534
S'loc'
p1535
g183
sS'noHXfreeze'
p1536
I1
sS'tempCold'
p1537
I0
sS'level'
p1538
I0
sS'trackfl'
p1539
I0
sS'tempHot'
p1540
I1
sS'tempGood'
p1541
I0
stp1542
Rp1543
(dp1544
g1028
g7
sbssI27
(dp1545
I0
g0
(g1015
g1016
(dp1546
g1535
g183
sg1536
I1
sg1537
I0
sg1538
I0
sg1539
I0
sg1540
I1
sg1541
I0
stp1547
Rp1548
(dp1549
g1028
g7
sbssI26
(dp1550
I0
g0
(g1015
g1016
(dp1551
g1535
g183
sg1536
I1
sg1537
I0
sg1538
I0
sg1539
I0
sg1540
I1
sg1541
I0
stp1552
Rp1553
(dp1554
g1028
g7
sbsssI26
(dp1555
I15
(dp1556
I0
g0
(g1015
g1016
(dp1557
S'loc'
p1558
g185
sS'noHXfreeze'
p1559
I0
sS'tempCold'
p1560
I0
sS'level'
p1561
I2
sS'trackfl'
p1562
I3
sS'tempHot'
p1563
I0
sS'tempGood'
p1564
I0
stp1565
Rp1566
(dp1567
g1028
g7
sbssI17
(dp1568
I0
g0
(g1015
g1016
(dp1569
g1558
g185
sg1559
I0
sg1560
I0
sg1561
I2
sg1562
I3
sg1563
I0
sg1564
I0
stp1570
Rp1571
(dp1572
g1028
g7
sbssI19
(dp1573
I0
g0
(g1015
g1016
(dp1574
g1558
g185
sg1559
I0
sg1560
I0
sg1561
I2
sg1562
I3
sg1563
I0
sg1564
I0
stp1575
Rp1576
(dp1577
g1028
g7
sbssI23
(dp1578
I0
g0
(g1015
g1016
(dp1579
g1558
g185
sg1559
I0
sg1560
I0
sg1561
I2
sg1562
I3
sg1563
I0
sg1564
I0
stp1580
Rp1581
(dp1582
g1028
g7
sbssI28
(dp1583
I0
g0
(g1015
g1016
(dp1584
g1558
g185
sg1559
I0
sg1560
I0
sg1561
I2
sg1562
I3
sg1563
I0
sg1564
I0
stp1585
Rp1586
(dp1587
g1028
g7
sbssI29
(dp1588
I0
g0
(g1015
g1016
(dp1589
g1558
g185
sg1559
I0
sg1560
I0
sg1561
I2
sg1562
I3
sg1563
I0
sg1564
I0
stp1590
Rp1591
(dp1592
g1028
g7
sbsssI27
(dp1593
I19
(dp1594
I0
g0
(g1015
g1016
(dp1595
S'loc'
p1596
g185
sS'noHXfreeze'
p1597
I0
sS'tempCold'
p1598
I0
sS'level'
p1599
I1
sS'trackfl'
p1600
I3
sS'tempHot'
p1601
I0
sS'tempGood'
p1602
I0
stp1603
Rp1604
(dp1605
g1028
g7
sbssI28
(dp1606
I0
g0
(g1015
g1016
(dp1607
g1596
g185
sg1597
I0
sg1598
I0
sg1599
I1
sg1600
I3
sg1601
I0
sg1602
I0
stp1608
Rp1609
(dp1610
g1028
g7
sbssI29
(dp1611
I0
g0
(g1015
g1016
(dp1612
g1596
g185
sg1597
I0
sg1598
I0
sg1599
I1
sg1600
I3
sg1601
I0
sg1602
I0
stp1613
Rp1614
(dp1615
g1028
g7
sbsssI28
(dp1616
I17
(dp1617
I0
g0
(g1015
g1016
(dp1618
S'loc'
p1619
g185
sS'noHXfreeze'
p1620
I0
sS'tempCold'
p1621
I0
sS'level'
p1622
I0
sS'trackfl'
p1623
I3
sS'tempHot'
p1624
I0
sS'tempGood'
p1625
I0
stp1626
Rp1627
(dp1628
g1028
g7
sbssI29
(dp1629
I0
g0
(g1015
g1016
(dp1630
g1619
g185
sg1620
I0
sg1621
I0
sg1622
I0
sg1623
I3
sg1624
I0
sg1625
I0
stp1631
Rp1632
(dp1633
g1028
g7
sbssI21
(dp1634
I0
g0
(g1015
g1016
(dp1635
g1619
g185
sg1620
I0
sg1621
I0
sg1622
I0
sg1623
I3
sg1624
I0
sg1625
I0
stp1636
Rp1637
(dp1638
g1028
g7
sbssI22
(dp1639
I0
g0
(g1015
g1016
(dp1640
g1619
g185
sg1620
I0
sg1621
I0
sg1622
I0
sg1623
I3
sg1624
I0
sg1625
I0
stp1641
Rp1642
(dp1643
g1028
g7
sbssI23
(dp1644
I0
g0
(g1015
g1016
(dp1645
g1619
g185
sg1620
I0
sg1621
I0
sg1622
I0
sg1623
I3
sg1624
I0
sg1625
I0
stp1646
Rp1647
(dp1648
g1028
g7
sbsssI29
(dp1649
I13
(dp1650
I0
g0
(g1015
g1016
(dp1651
S'loc'
p1652
g180
sS'noHXfreeze'
p1653
I0
sS'tempCold'
p1654
I0
sS'level'
p1655
I0
sS'trackfl'
p1656
I3
sS'tempHot'
p1657
I0
sS'tempGood'
p1658
I0
stp1659
Rp1660
(dp1661
g1028
g7
sbssI30
(dp1662
I0
g0
(g1015
g1016
(dp1663
g1652
g180
sg1653
I0
sg1654
I0
sg1655
I0
sg1656
I3
sg1657
I0
sg1658
I0
stp1664
Rp1665
(dp1666
g1028
g7
sbsssI30
(dp1667
I45
(dp1668
I0
g0
(g1015
g1016
(dp1669
S'loc'
p1670
g890
sS'noHXfreeze'
p1671
I0
sS'tempCold'
p1672
I0
sS'level'
p1673
I0
sS'trackfl'
p1674
I3
sS'tempHot'
p1675
I0
sS'tempGood'
p1676
I0
stp1677
Rp1678
(dp1679
g1028
g7
sbsssI31
(dp1680
I41
(dp1681
I0
g0
(g1015
g1016
(dp1682
S'loc'
p1683
g884
sS'noHXfreeze'
p1684
I0
sS'tempCold'
p1685
I0
sS'level'
p1686
I1
sS'trackfl'
p1687
I3
sS'tempHot'
p1688
I0
sS'tempGood'
p1689
I0
stp1690
Rp1691
(dp1692
g1028
g7
sbsssI32
(dp1693
I33
(dp1694
I0
g0
(g1015
g1016
(dp1695
S'loc'
p1696
g883
sS'noHXfreeze'
p1697
I0
sS'tempCold'
p1698
I0
sS'level'
p1699
I0
sS'trackfl'
p1700
I3
sS'tempHot'
p1701
I0
sS'tempGood'
p1702
I0
stp1703
Rp1704
(dp1705
g1028
g7
sbsssI33
(dp1706
g1068
(dp1707
I0
g0
(g1015
g1016
(dp1708
S'loc'
p1709
g631
sS'noHXfreeze'
p1710
I0
sS'tempCold'
p1711
I0
sS'level'
p1712
I1
sS'trackfl'
p1713
I1
sS'tempHot'
p1714
I0
sS'tempGood'
p1715
I1
stp1716
Rp1717
(dp1718
g1028
g7
sbssI37
(dp1719
I0
g0
(g1015
g1016
(dp1720
g1709
g631
sg1710
I0
sg1711
I0
sg1712
I1
sg1713
I1
sg1714
I0
sg1715
I1
stp1721
Rp1722
(dp1723
g1028
g7
sbsssI34
(dp1724
I53
(dp1725
I0
g0
(g1015
g1016
(dp1726
S'loc'
p1727
g635
sS'noHXfreeze'
p1728
I0
sS'tempCold'
p1729
I0
sS'level'
p1730
I0
sS'trackfl'
p1731
I1
sS'tempHot'
p1732
I0
sS'tempGood'
p1733
I1
stp1734
Rp1735
(dp1736
g1028
g7
sbsssI35
(dp1737
I36
(dp1738
I0
g0
(g1015
g1016
(dp1739
S'loc'
p1740
g775
sS'noHXfreeze'
p1741
I0
sS'tempCold'
p1742
I0
sS'level'
p1743
I2
sS'trackfl'
p1744
I1
sS'tempHot'
p1745
I0
sS'tempGood'
p1746
I1
stp1747
Rp1748
(dp1749
g1028
g7
sbsssI36
(dp1750
I38
(dp1751
I0
g0
(g1015
g1016
(dp1752
S'loc'
p1753
g631
sS'noHXfreeze'
p1754
I0
sS'tempCold'
p1755
I0
sS'level'
p1756
I2
sS'trackfl'
p1757
I1
sS'tempHot'
p1758
I0
sS'tempGood'
p1759
I1
stp1760
Rp1761
(dp1762
g1028
g7
sbsssI37
(dp1763
I38
(dp1764
I0
g0
(g1015
g1016
(dp1765
S'loc'
p1766
g883
sS'noHXfreeze'
p1767
I0
sS'tempCold'
p1768
I0
sS'level'
p1769
I1
sS'trackfl'
p1770
I3
sS'tempHot'
p1771
I0
sS'tempGood'
p1772
I0
stp1773
Rp1774
(dp1775
g1028
g7
sbssI31
(dp1776
I0
g0
(g1015
g1016
(dp1777
g1766
g883
sg1767
I0
sg1768
I0
sg1769
I1
sg1770
I3
sg1771
I0
sg1772
I0
stp1778
Rp1779
(dp1780
g1028
g7
sbsssI38
(dp1781
I51
(dp1782
I0
g0
(g1015
g1016
(dp1783
S'loc'
p1784
g883
sS'noHXfreeze'
p1785
I0
sS'tempCold'
p1786
I0
sS'level'
p1787
I2
sS'trackfl'
p1788
I3
sS'tempHot'
p1789
I0
sS'tempGood'
p1790
I0
stp1791
Rp1792
(dp1793
g1028
g7
sbssI39
(dp1794
I0
g0
(g1015
g1016
(dp1795
g1784
g883
sg1785
I0
sg1786
I0
sg1787
I2
sg1788
I3
sg1789
I0
sg1790
I0
stp1796
Rp1797
(dp1798
g1028
g7
sbsssI39
(dp1799
I40
(dp1800
I0
g0
(g1015
g1016
(dp1801
S'loc'
p1802
g884
sS'noHXfreeze'
p1803
I0
sS'tempCold'
p1804
I0
sS'level'
p1805
I2
sS'trackfl'
p1806
I3
sS'tempHot'
p1807
I0
sS'tempGood'
p1808
I0
stp1809
Rp1810
(dp1811
g1028
g7
sbsssI40
(dp1812
I42
(dp1813
I0
g0
(g1015
g1016
(dp1814
S'loc'
p1815
g889
sS'noHXfreeze'
p1816
I0
sS'tempCold'
p1817
I0
sS'level'
p1818
I2
sS'trackfl'
p1819
I3
sS'tempHot'
p1820
I0
sS'tempGood'
p1821
I0
stp1822
Rp1823
(dp1824
g1028
g7
sbssI20
(dp1825
I0
g0
(g1015
g1016
(dp1826
g1815
g889
sg1816
I0
sg1817
I0
sg1818
I2
sg1819
I3
sg1820
I0
sg1821
I0
stp1827
Rp1828
(dp1829
g1028
g7
sbsssI41
(dp1830
I39
(dp1831
I0
g0
(g1015
g1016
(dp1832
S'loc'
p1833
g889
sS'noHXfreeze'
p1834
I0
sS'tempCold'
p1835
I0
sS'level'
p1836
I1
sS'trackfl'
p1837
I3
sS'tempHot'
p1838
I0
sS'tempGood'
p1839
I0
stp1840
Rp1841
(dp1842
g1028
g7
sbssI40
(dp1843
I0
g0
(g1015
g1016
(dp1844
g1833
g889
sg1834
I0
sg1835
I0
sg1836
I1
sg1837
I3
sg1838
I0
sg1839
I0
stp1845
Rp1846
(dp1847
g1028
g7
sbssI42
(dp1848
I0
g0
(g1015
g1016
(dp1849
g1833
g889
sg1834
I0
sg1835
I0
sg1836
I1
sg1837
I3
sg1838
I0
sg1839
I0
stp1850
Rp1851
(dp1852
g1028
g7
sbssI14
(dp1853
I0
g0
(g1015
g1016
(dp1854
g1833
g889
sg1834
I0
sg1835
I0
sg1836
I1
sg1837
I3
sg1838
I0
sg1839
I0
stp1855
Rp1856
(dp1857
g1028
g7
sbssI16
(dp1858
I0
g0
(g1015
g1016
(dp1859
g1833
g889
sg1834
I0
sg1835
I0
sg1836
I1
sg1837
I3
sg1838
I0
sg1839
I0
stp1860
Rp1861
(dp1862
g1028
g7
sbssI20
(dp1863
I0
g0
(g1015
g1016
(dp1864
g1833
g889
sg1834
I0
sg1835
I0
sg1836
I1
sg1837
I3
sg1838
I0
sg1839
I0
stp1865
Rp1866
(dp1867
g1028
g7
sbsssI42
(dp1868
I43
(dp1869
I0
g0
(g1015
g1016
(dp1870
S'loc'
p1871
g489
sS'noHXfreeze'
p1872
I1
sS'tempCold'
p1873
I0
sS'level'
p1874
I2
sS'trackfl'
p1875
I3
sS'tempHot'
p1876
I0
sS'tempGood'
p1877
I0
stp1878
Rp1879
(dp1880
g1028
g7
sbssI44
(dp1881
I0
g0
(g1015
g1016
(dp1882
g1871
g489
sg1872
I1
sg1873
I0
sg1874
I2
sg1875
I3
sg1876
I0
sg1877
I0
stp1883
Rp1884
(dp1885
g1028
g7
sbsssI43
(dp1886
I41
(dp1887
I0
g0
(g1015
g1016
(dp1888
S'loc'
p1889
g889
sS'noHXfreeze'
p1890
I0
sS'tempCold'
p1891
I0
sS'level'
p1892
I2
sS'trackfl'
p1893
I3
sS'tempHot'
p1894
I0
sS'tempGood'
p1895
I0
stp1896
Rp1897
(dp1898
g1028
g7
sbssI13
(dp1899
I0
g0
(g1015
g1016
(dp1900
g1889
g889
sg1890
I0
sg1891
I0
sg1892
I2
sg1893
I3
sg1894
I0
sg1895
I0
stp1901
Rp1902
(dp1903
g1028
g7
sbssI14
(dp1904
I0
g0
(g1015
g1016
(dp1905
g1889
g889
sg1890
I0
sg1891
I0
sg1892
I2
sg1893
I3
sg1894
I0
sg1895
I0
stp1906
Rp1907
(dp1908
g1028
g7
sbssI45
(dp1909
I0
g0
(g1015
g1016
(dp1910
g1889
g889
sg1890
I0
sg1891
I0
sg1892
I2
sg1893
I3
sg1894
I0
sg1895
I0
stp1911
Rp1912
(dp1913
g1028
g7
sbssI16
(dp1914
I0
g0
(g1015
g1016
(dp1915
g1889
g889
sg1890
I0
sg1891
I0
sg1892
I2
sg1893
I3
sg1894
I0
sg1895
I0
stp1916
Rp1917
(dp1918
g1028
g7
sbssI47
(dp1919
I0
g0
(g1015
g1016
(dp1920
g1889
g889
sg1890
I0
sg1891
I0
sg1892
I2
sg1893
I3
sg1894
I0
sg1895
I0
stp1921
Rp1922
(dp1923
g1028
g7
sbssI30
(dp1924
I0
g0
(g1015
g1016
(dp1925
g1889
g889
sg1890
I0
sg1891
I0
sg1892
I2
sg1893
I3
sg1894
I0
sg1895
I0
stp1926
Rp1927
(dp1928
g1028
g7
sbssI31
(dp1929
I0
g0
(g1015
g1016
(dp1930
g1889
g889
sg1890
I0
sg1891
I0
sg1892
I2
sg1893
I3
sg1894
I0
sg1895
I0
stp1931
Rp1932
(dp1933
g1028
g7
sbsssI44
(dp1934
I47
(dp1935
I0
g0
(g1015
g1016
(dp1936
S'loc'
p1937
g889
sS'noHXfreeze'
p1938
I0
sS'tempCold'
p1939
I0
sS'level'
p1940
I1
sS'trackfl'
p1941
I3
sS'tempHot'
p1942
I0
sS'tempGood'
p1943
I0
stp1944
Rp1945
(dp1946
g1028
g7
sbssI13
(dp1947
I0
g0
(g1015
g1016
(dp1948
g1937
g889
sg1938
I0
sg1939
I0
sg1940
I1
sg1941
I3
sg1942
I0
sg1943
I0
stp1949
Rp1950
(dp1951
g1028
g7
sbssI30
(dp1952
I0
g0
(g1015
g1016
(dp1953
g1937
g889
sg1938
I0
sg1939
I0
sg1940
I1
sg1941
I3
sg1942
I0
sg1943
I0
stp1954
Rp1955
(dp1956
g1028
g7
sbssI45
(dp1957
I0
g0
(g1015
g1016
(dp1958
g1937
g889
sg1938
I0
sg1939
I0
sg1940
I1
sg1941
I3
sg1942
I0
sg1943
I0
stp1959
Rp1960
(dp1961
g1028
g7
sbsssI45
(dp1962
I39
(dp1963
I0
g0
(g1015
g1016
(dp1964
S'loc'
p1965
g889
sS'noHXfreeze'
p1966
I0
sS'tempCold'
p1967
I0
sS'level'
p1968
I0
sS'trackfl'
p1969
I3
sS'tempHot'
p1970
I0
sS'tempGood'
p1971
I0
stp1972
Rp1973
(dp1974
g1028
g7
sbssI40
(dp1975
I0
g0
(g1015
g1016
(dp1976
g1965
g889
sg1966
I0
sg1967
I0
sg1968
I0
sg1969
I3
sg1970
I0
sg1971
I0
stp1977
Rp1978
(dp1979
g1028
g7
sbssI41
(dp1980
I0
g0
(g1015
g1016
(dp1981
g1965
g889
sg1966
I0
sg1967
I0
sg1968
I0
sg1969
I3
sg1970
I0
sg1971
I0
stp1982
Rp1983
(dp1984
g1028
g7
sbssI42
(dp1985
I0
g0
(g1015
g1016
(dp1986
g1965
g889
sg1966
I0
sg1967
I0
sg1968
I0
sg1969
I3
sg1970
I0
sg1971
I0
stp1987
Rp1988
(dp1989
g1028
g7
sbssI14
(dp1990
I0
g0
(g1015
g1016
(dp1991
g1965
g889
sg1966
I0
sg1967
I0
sg1968
I0
sg1969
I3
sg1970
I0
sg1971
I0
stp1992
Rp1993
(dp1994
g1028
g7
sbssI47
(dp1995
I0
g0
(g1015
g1016
(dp1996
g1965
g889
sg1966
I0
sg1967
I0
sg1968
I0
sg1969
I3
sg1970
I0
sg1971
I0
stp1997
Rp1998
(dp1999
g1028
g7
sbssI16
(dp2000
I0
g0
(g1015
g1016
(dp2001
g1965
g889
sg1966
I0
sg1967
I0
sg1968
I0
sg1969
I3
sg1970
I0
sg1971
I0
stp2002
Rp2003
(dp2004
g1028
g7
sbssI20
(dp2005
I0
g0
(g1015
g1016
(dp2006
g1965
g889
sg1966
I0
sg1967
I0
sg1968
I0
sg1969
I3
sg1970
I0
sg1971
I0
stp2007
Rp2008
(dp2009
g1028
g7
sbssI31
(dp2010
I0
g0
(g1015
g1016
(dp2011
g1965
g889
sg1966
I0
sg1967
I0
sg1968
I0
sg1969
I3
sg1970
I0
sg1971
I0
stp2012
Rp2013
(dp2014
g1028
g7
sbsssI46
(dp2015
I54
(dp2016
I0
g0
(g1015
g1016
(dp2017
S'loc'
p2018
g883
sS'noHXfreeze'
p2019
I0
sS'tempCold'
p2020
I0
sS'level'
p2021
I1
sS'trackfl'
p2022
I3
sS'tempHot'
p2023
I0
sS'tempGood'
p2024
I0
stp2025
Rp2026
(dp2027
g1028
g7
sbsssI47
(dp2028
I54
(dp2029
I0
g0
(g1015
g1016
(dp2030
S'loc'
p2031
g884
sS'noHXfreeze'
p2032
I0
sS'tempCold'
p2033
I0
sS'level'
p2034
I0
sS'trackfl'
p2035
I3
sS'tempHot'
p2036
I0
sS'tempGood'
p2037
I0
stp2038
Rp2039
(dp2040
g1028
g7
sbsssI48
(dp2041
g1068
(dp2042
I0
g0
(g1015
g1016
(dp2043
S'loc'
p2044
g632
sS'noHXfreeze'
p2045
I0
sS'tempCold'
p2046
I0
sS'level'
p2047
I1
sS'trackfl'
p2048
I1
sS'tempHot'
p2049
I0
sS'tempGood'
p2050
I1
stp2051
Rp2052
(dp2053
g1028
g7
sbssI33
(dp2054
I0
g0
(g1015
g1016
(dp2055
g2044
g632
sg2045
I0
sg2046
I0
sg2047
I1
sg2048
I1
sg2049
I0
sg2050
I1
stp2056
Rp2057
(dp2058
g1028
g7
sbssI50
(dp2059
I0
g0
(g1015
g1016
(dp2060
g2044
g632
sg2045
I0
sg2046
I0
sg2047
I1
sg2048
I1
sg2049
I0
sg2050
I1
stp2061
Rp2062
(dp2063
g1028
g7
sbssI51
(dp2064
I0
g0
(g1015
g1016
(dp2065
g2044
g632
sg2045
I0
sg2046
I0
sg2047
I1
sg2048
I1
sg2049
I0
sg2050
I1
stp2066
Rp2067
(dp2068
g1028
g7
sbssI12
(dp2069
I0
g0
(g1015
g1016
(dp2070
g2044
g632
sg2045
I0
sg2046
I0
sg2047
I1
sg2048
I1
sg2049
I0
sg2050
I1
stp2071
Rp2072
(dp2073
g1028
g7
sbsssI49
(dp2074
I50
(dp2075
I0
g0
(g1015
g1016
(dp2076
S'loc'
p2077
g632
sS'noHXfreeze'
p2078
I0
sS'tempCold'
p2079
I0
sS'level'
p2080
I2
sS'trackfl'
p2081
I1
sS'tempHot'
p2082
I0
sS'tempGood'
p2083
I1
stp2084
Rp2085
(dp2086
g1028
g7
sbsssI50
(dp2087
I32
(dp2088
I0
g0
(g1015
g1016
(dp2089
S'loc'
p2090
g634
sS'noHXfreeze'
p2091
I1
sS'tempCold'
p2092
I0
sS'level'
p2093
I2
sS'trackfl'
p2094
I1
sS'tempHot'
p2095
I0
sS'tempGood'
p2096
I1
stp2097
Rp2098
(dp2099
g1028
g7
sbssI48
(dp2100
I0
g0
(g1015
g1016
(dp2101
g2090
g634
sg2091
I1
sg2092
I0
sg2093
I2
sg2094
I1
sg2095
I0
sg2096
I1
stp2102
Rp2103
(dp2104
g1028
g7
sbssI52
(dp2105
I0
g0
(g1015
g1016
(dp2106
g2090
g634
sg2091
I1
sg2092
I0
sg2093
I2
sg2094
I1
sg2095
I0
sg2096
I1
stp2107
Rp2108
(dp2109
g1028
g7
sbssI46
(dp2110
I0
g0
(g1015
g1016
(dp2111
g2090
g634
sg2091
I1
sg2092
I0
sg2093
I2
sg2094
I1
sg2095
I0
sg2096
I1
stp2112
Rp2113
(dp2114
g1028
g7
sbsssI51
(dp2115
I32
(dp2116
I0
g0
(g1015
g1016
(dp2117
S'loc'
p2118
g634
sS'noHXfreeze'
p2119
I1
sS'tempCold'
p2120
I0
sS'level'
p2121
I1
sS'trackfl'
p2122
I1
sS'tempHot'
p2123
I0
sS'tempGood'
p2124
I1
stp2125
Rp2126
(dp2127
g1028
g7
sbssI48
(dp2128
I0
g0
(g1015
g1016
(dp2129
g2118
g634
sg2119
I1
sg2120
I0
sg2121
I1
sg2122
I1
sg2123
I0
sg2124
I1
stp2130
Rp2131
(dp2132
g1028
g7
sbssI52
(dp2133
I0
g0
(g1015
g1016
(dp2134
g2118
g634
sg2119
I1
sg2120
I0
sg2121
I1
sg2122
I1
sg2123
I0
sg2124
I1
stp2135
Rp2136
(dp2137
g1028
g7
sbssI46
(dp2138
I0
g0
(g1015
g1016
(dp2139
g2118
g634
sg2119
I1
sg2120
I0
sg2121
I1
sg2122
I1
sg2123
I0
sg2124
I1
stp2140
Rp2141
(dp2142
g1028
g7
sbssg1068
(dp2143
I0
g0
(g1015
g1016
(dp2144
g2118
g634
sg2119
I1
sg2120
I0
sg2121
I1
sg2122
I1
sg2123
I0
sg2124
I1
stp2145
Rp2146
(dp2147
g1028
g7
sbsssI52
(dp2148
I33
(dp2149
I0
g0
(g1015
g1016
(dp2150
S'loc'
p2151
g883
sS'noHXfreeze'
p2152
I0
sS'tempCold'
p2153
I0
sS'level'
p2154
I2
sS'trackfl'
p2155
I3
sS'tempHot'
p2156
I0
sS'tempGood'
p2157
I0
stp2158
Rp2159
(dp2160
g1028
g7
sbssI12
(dp2161
I0
g0
(g1015
g1016
(dp2162
g2151
g883
sg2152
I0
sg2153
I0
sg2154
I2
sg2155
I3
sg2156
I0
sg2157
I0
stp2163
Rp2164
(dp2165
g1028
g7
sbssI37
(dp2166
I0
g0
(g1015
g1016
(dp2167
g2151
g883
sg2152
I0
sg2153
I0
sg2154
I2
sg2155
I3
sg2156
I0
sg2157
I0
stp2168
Rp2169
(dp2170
g1028
g7
sbssI54
(dp2171
I0
g0
(g1015
g1016
(dp2172
g2151
g883
sg2152
I0
sg2153
I0
sg2154
I2
sg2155
I3
sg2156
I0
sg2157
I0
stp2173
Rp2174
(dp2175
g1028
g7
sbssI55
(dp2176
I0
g0
(g1015
g1016
(dp2177
g2151
g883
sg2152
I0
sg2153
I0
sg2154
I2
sg2155
I3
sg2156
I0
sg2157
I0
stp2178
Rp2179
(dp2180
g1028
g7
sbsssI53
(dp2181
g1068
(dp2182
I0
g0
(g1015
g1016
(dp2183
S'loc'
p2184
g775
sS'noHXfreeze'
p2185
I0
sS'tempCold'
p2186
I0
sS'level'
p2187
I1
sS'trackfl'
p2188
I1
sS'tempHot'
p2189
I0
sS'tempGood'
p2190
I1
stp2191
Rp2192
(dp2193
g1028
g7
sbssI36
(dp2194
I0
g0
(g1015
g1016
(dp2195
g2184
g775
sg2185
I0
sg2186
I0
sg2187
I1
sg2188
I1
sg2189
I0
sg2190
I1
stp2196
Rp2197
(dp2198
g1028
g7
sbssI55
(dp2199
I0
g0
(g1015
g1016
(dp2200
g2184
g775
sg2185
I0
sg2186
I0
sg2187
I1
sg2188
I1
sg2189
I0
sg2190
I1
stp2201
Rp2202
(dp2203
g1028
g7
sbsssI54
(dp2204
I36
(dp2205
I0
g0
(g1015
g1016
(dp2206
S'loc'
p2207
g883
sS'noHXfreeze'
p2208
I0
sS'tempCold'
p2209
I0
sS'level'
p2210
I0
sS'trackfl'
p2211
I3
sS'tempHot'
p2212
I0
sS'tempGood'
p2213
I0
stp2214
Rp2215
(dp2216
g1028
g7
sbssI37
(dp2217
I0
g0
(g1015
g1016
(dp2218
g2207
g883
sg2208
I0
sg2209
I0
sg2210
I0
sg2211
I3
sg2212
I0
sg2213
I0
stp2219
Rp2220
(dp2221
g1028
g7
sbssI38
(dp2222
I0
g0
(g1015
g1016
(dp2223
g2207
g883
sg2208
I0
sg2209
I0
sg2210
I0
sg2211
I3
sg2212
I0
sg2213
I0
stp2224
Rp2225
(dp2226
g1028
g7
sbssI12
(dp2227
I0
g0
(g1015
g1016
(dp2228
g2207
g883
sg2208
I0
sg2209
I0
sg2210
I0
sg2211
I3
sg2212
I0
sg2213
I0
stp2229
Rp2230
(dp2231
g1028
g7
sbssI50
(dp2232
I0
g0
(g1015
g1016
(dp2233
g2207
g883
sg2208
I0
sg2209
I0
sg2210
I0
sg2211
I3
sg2212
I0
sg2213
I0
stp2234
Rp2235
(dp2236
g1028
g7
sbssI51
(dp2237
I0
g0
(g1015
g1016
(dp2238
g2207
g883
sg2208
I0
sg2209
I0
sg2210
I0
sg2211
I3
sg2212
I0
sg2213
I0
stp2239
Rp2240
(dp2241
g1028
g7
sbssI55
(dp2242
I0
g0
(g1015
g1016
(dp2243
g2207
g883
sg2208
I0
sg2209
I0
sg2210
I0
sg2211
I3
sg2212
I0
sg2213
I0
stp2244
Rp2245
(dp2246
g1028
g7
sbsssI55
(dp2247
I56
(dp2248
I0
g0
(g1015
g1016
(dp2249
S'loc'
p2250
g631
sS'noHXfreeze'
p2251
I0
sS'tempCold'
p2252
I0
sS'level'
p2253
I0
sS'trackfl'
p2254
I1
sS'tempHot'
p2255
I0
sS'tempGood'
p2256
I1
stp2257
Rp2258
(dp2259
g1028
g7
sbssI66
(dp2260
I0
g0
(g1015
g1016
(dp2261
g2250
g631
sg2251
I0
sg2252
I0
sg2253
I0
sg2254
I1
sg2255
I0
sg2256
I1
stp2262
Rp2263
(dp2264
g1028
g7
sbsssI56
(dp2265
I57
(dp2266
I0
g0
(g1015
g1016
(dp2267
S'loc'
p2268
g632
sS'noHXfreeze'
p2269
I0
sS'tempCold'
p2270
I0
sS'level'
p2271
I0
sS'trackfl'
p2272
I1
sS'tempHot'
p2273
I0
sS'tempGood'
p2274
I1
stp2275
Rp2276
(dp2277
g1028
g7
sbsssI57
(dp2278
I64
(dp2279
I0
g0
(g1015
g1016
(dp2280
S'loc'
p2281
g636
sS'noHXfreeze'
p2282
I1
sS'tempCold'
p2283
I0
sS'level'
p2284
I0
sS'trackfl'
p2285
I1
sS'tempHot'
p2286
I0
sS'tempGood'
p2287
I1
stp2288
Rp2289
(dp2290
g1028
g7
sbssI65
(dp2291
I0
g0
(g1015
g1016
(dp2292
g2281
g636
sg2282
I1
sg2283
I0
sg2284
I0
sg2285
I1
sg2286
I0
sg2287
I1
stp2293
Rp2294
(dp2295
g1028
g7
sbssI34
(dp2296
I0
g0
(g1015
g1016
(dp2297
g2281
g636
sg2282
I1
sg2283
I0
sg2284
I0
sg2285
I1
sg2286
I0
sg2287
I1
stp2298
Rp2299
(dp2300
g1028
g7
sbsssI58
(dp2301
I59
(dp2302
I0
g0
(g1015
g1016
(dp2303
S'loc'
p2304
g371
sS'noHXfreeze'
p2305
I0
sS'tempCold'
p2306
I0
sS'level'
p2307
I2
sS'trackfl'
p2308
I1
sS'tempHot'
p2309
I0
sS'tempGood'
p2310
I1
stp2311
Rp2312
(dp2313
g1028
g7
sbsssI59
(dp2314
I49
(dp2315
I0
g0
(g1015
g1016
(dp2316
S'loc'
p2317
g635
sS'noHXfreeze'
p2318
I0
sS'tempCold'
p2319
I0
sS'level'
p2320
I2
sS'trackfl'
p2321
I1
sS'tempHot'
p2322
I0
sS'tempGood'
p2323
I1
stp2324
Rp2325
(dp2326
g1028
g7
sbssI35
(dp2327
I0
g0
(g1015
g1016
(dp2328
g2317
g635
sg2318
I0
sg2319
I0
sg2320
I2
sg2321
I1
sg2322
I0
sg2323
I1
stp2329
Rp2330
(dp2331
g1028
g7
sbssI63
(dp2332
I0
g0
(g1015
g1016
(dp2333
g2317
g635
sg2318
I0
sg2319
I0
sg2320
I2
sg2321
I1
sg2322
I0
sg2323
I1
stp2334
Rp2335
(dp2336
g1028
g7
sbsssI60
(dp2337
I58
(dp2338
I0
g0
(g1015
g1016
(dp2339
S'loc'
p2340
g368
sS'noHXfreeze'
p2341
I0
sS'tempCold'
p2342
I0
sS'level'
p2343
I2
sS'trackfl'
p2344
I1
sS'tempHot'
p2345
I0
sS'tempGood'
p2346
I1
stp2347
Rp2348
(dp2349
g1028
g7
sbssI61
(dp2350
I0
g0
(g1015
g1016
(dp2351
g2340
g368
sg2341
I0
sg2342
I0
sg2343
I2
sg2344
I1
sg2345
I0
sg2346
I1
stp2352
Rp2353
(dp2354
g1028
g7
sbsssI61
(dp2355
I62
(dp2356
I0
g0
(g1015
g1016
(dp2357
S'loc'
p2358
g365
sS'noHXfreeze'
p2359
I0
sS'tempCold'
p2360
I0
sS'level'
p2361
I2
sS'trackfl'
p2362
I1
sS'tempHot'
p2363
I0
sS'tempGood'
p2364
I1
stp2365
Rp2366
(dp2367
g1028
g7
sbsssI62
(dp2368
I64
(dp2369
I0
g0
(g1015
g1016
(dp2370
S'loc'
p2371
g636
sS'noHXfreeze'
p2372
I1
sS'tempCold'
p2373
I0
sS'level'
p2374
I2
sS'trackfl'
p2375
I1
sS'tempHot'
p2376
I0
sS'tempGood'
p2377
I1
stp2378
Rp2379
(dp2380
g1028
g7
sbssI65
(dp2381
I0
g0
(g1015
g1016
(dp2382
g2371
g636
sg2372
I1
sg2373
I0
sg2374
I2
sg2375
I1
sg2376
I0
sg2377
I1
stp2383
Rp2384
(dp2385
g1028
g7
sbssI34
(dp2386
I0
g0
(g1015
g1016
(dp2387
g2371
g636
sg2372
I1
sg2373
I0
sg2374
I2
sg2375
I1
sg2376
I0
sg2377
I1
stp2388
Rp2389
(dp2390
g1028
g7
sbsssI63
(dp2391
I64
(dp2392
I0
g0
(g1015
g1016
(dp2393
S'loc'
p2394
g636
sS'noHXfreeze'
p2395
I1
sS'tempCold'
p2396
I0
sS'level'
p2397
I1
sS'trackfl'
p2398
I1
sS'tempHot'
p2399
I0
sS'tempGood'
p2400
I1
stp2401
Rp2402
(dp2403
g1028
g7
sbssI65
(dp2404
I0
g0
(g1015
g1016
(dp2405
g2394
g636
sg2395
I1
sg2396
I0
sg2397
I1
sg2398
I1
sg2399
I0
sg2400
I1
stp2406
Rp2407
(dp2408
g1028
g7
sbssI34
(dp2409
I0
g0
(g1015
g1016
(dp2410
g2394
g636
sg2395
I1
sg2396
I0
sg2397
I1
sg2398
I1
sg2399
I0
sg2400
I1
stp2411
Rp2412
(dp2413
g1028
g7
sbssg1068
(dp2414
I0
g0
(g1015
g1016
(dp2415
g2394
g636
sg2395
I1
sg2396
I0
sg2397
I1
sg2398
I1
sg2399
I0
sg2400
I1
stp2416
Rp2417
(dp2418
g1028
g7
sbsssI64
(dp2419
I56
(dp2420
I0
g0
(g1015
g1016
(dp2421
S'loc'
p2422
g635
sS'noHXfreeze'
p2423
I0
sS'tempCold'
p2424
I0
sS'level'
p2425
I2
sS'trackfl'
p2426
I1
sS'tempHot'
p2427
I0
sS'tempGood'
p2428
I1
stp2429
Rp2430
(dp2431
g1028
g7
sbssI57
(dp2432
I0
g0
(g1015
g1016
(dp2433
g2422
g635
sg2423
I0
sg2424
I0
sg2425
I2
sg2426
I1
sg2427
I0
sg2428
I1
stp2434
Rp2435
(dp2436
g1028
g7
sbssI66
(dp2437
I0
g0
(g1015
g1016
(dp2438
g2422
g635
sg2423
I0
sg2424
I0
sg2425
I2
sg2426
I1
sg2427
I0
sg2428
I1
stp2439
Rp2440
(dp2441
g1028
g7
sbssI67
(dp2442
I0
g0
(g1015
g1016
(dp2443
g2422
g635
sg2423
I0
sg2424
I0
sg2425
I2
sg2426
I1
sg2427
I0
sg2428
I1
stp2444
Rp2445
(dp2446
g1028
g7
sbssI53
(dp2447
I0
g0
(g1015
g1016
(dp2448
g2422
g635
sg2423
I0
sg2424
I0
sg2425
I2
sg2426
I1
sg2427
I0
sg2428
I1
stp2449
Rp2450
(dp2451
g1028
g7
sbsssI65
(dp2452
I66
(dp2453
I0
g0
(g1015
g1016
(dp2454
S'loc'
p2455
g635
sS'noHXfreeze'
p2456
I0
sS'tempCold'
p2457
I0
sS'level'
p2458
I1
sS'trackfl'
p2459
I1
sS'tempHot'
p2460
I0
sS'tempGood'
p2461
I1
stp2462
Rp2463
(dp2464
g1028
g7
sbssI35
(dp2465
I0
g0
(g1015
g1016
(dp2466
g2455
g635
sg2456
I0
sg2457
I0
sg2458
I1
sg2459
I1
sg2460
I0
sg2461
I1
stp2467
Rp2468
(dp2469
g1028
g7
sbssg1068
(dp2470
I0
g0
(g1015
g1016
(dp2471
g2455
g635
sg2456
I0
sg2457
I0
sg2458
I1
sg2459
I1
sg2460
I0
sg2461
I1
stp2472
Rp2473
(dp2474
g1028
g7
sbssI49
(dp2475
I0
g0
(g1015
g1016
(dp2476
g2455
g635
sg2456
I0
sg2457
I0
sg2458
I1
sg2459
I1
sg2460
I0
sg2461
I1
stp2477
Rp2478
(dp2479
g1028
g7
sbssI67
(dp2480
I0
g0
(g1015
g1016
(dp2481
g2455
g635
sg2456
I0
sg2457
I0
sg2458
I1
sg2459
I1
sg2460
I0
sg2461
I1
stp2482
Rp2483
(dp2484
g1028
g7
sbssI53
(dp2485
I0
g0
(g1015
g1016
(dp2486
g2455
g635
sg2456
I0
sg2457
I0
sg2458
I1
sg2459
I1
sg2460
I0
sg2461
I1
stp2487
Rp2488
(dp2489
g1028
g7
sbssI56
(dp2490
I0
g0
(g1015
g1016
(dp2491
g2455
g635
sg2456
I0
sg2457
I0
sg2458
I1
sg2459
I1
sg2460
I0
sg2461
I1
stp2492
Rp2493
(dp2494
g1028
g7
sbssI57
(dp2495
I0
g0
(g1015
g1016
(dp2496
g2455
g635
sg2456
I0
sg2457
I0
sg2458
I1
sg2459
I1
sg2460
I0
sg2461
I1
stp2497
Rp2498
(dp2499
g1028
g7
sbssI59
(dp2500
I0
g0
(g1015
g1016
(dp2501
g2455
g635
sg2456
I0
sg2457
I0
sg2458
I1
sg2459
I1
sg2460
I0
sg2461
I1
stp2502
Rp2503
(dp2504
g1028
g7
sbssI62
(dp2505
I0
g0
(g1015
g1016
(dp2506
g2455
g635
sg2456
I0
sg2457
I0
sg2458
I1
sg2459
I1
sg2460
I0
sg2461
I1
stp2507
Rp2508
(dp2509
g1028
g7
sbssI63
(dp2510
I0
g0
(g1015
g1016
(dp2511
g2455
g635
sg2456
I0
sg2457
I0
sg2458
I1
sg2459
I1
sg2460
I0
sg2461
I1
stp2512
Rp2513
(dp2514
g1028
g7
sbsssI66
(dp2515
I67
(dp2516
I0
g0
(g1015
g1016
(dp2517
S'loc'
p2518
g775
sS'noHXfreeze'
p2519
I0
sS'tempCold'
p2520
I0
sS'level'
p2521
I0
sS'trackfl'
p2522
I1
sS'tempHot'
p2523
I0
sS'tempGood'
p2524
I1
stp2525
Rp2526
(dp2527
g1028
g7
sbsssI67
(dp2528
I35
(dp2529
I0
g0
(g1015
g1016
(dp2530
S'loc'
p2531
g635
sS'noHXfreeze'
p2532
I0
sS'tempCold'
p2533
I0
sS'level'
p2534
I0
sS'trackfl'
p2535
I1
sS'tempHot'
p2536
I0
sS'tempGood'
p2537
I1
stp2538
Rp2539
(dp2540
g1028
g7
sbssI68
(dp2541
I0
g0
(g1015
g1016
(dp2542
g2531
g635
sg2532
I0
sg2533
I0
sg2534
I0
sg2535
I1
sg2536
I0
sg2537
I1
stp2543
Rp2544
(dp2545
g1028
g7
sbssI49
(dp2546
I0
g0
(g1015
g1016
(dp2547
g2531
g635
sg2532
I0
sg2533
I0
sg2534
I0
sg2535
I1
sg2536
I0
sg2537
I1
stp2548
Rp2549
(dp2550
g1028
g7
sbssI59
(dp2551
I0
g0
(g1015
g1016
(dp2552
g2531
g635
sg2532
I0
sg2533
I0
sg2534
I0
sg2535
I1
sg2536
I0
sg2537
I1
stp2553
Rp2554
(dp2555
g1028
g7
sbssI62
(dp2556
I0
g0
(g1015
g1016
(dp2557
g2531
g635
sg2532
I0
sg2533
I0
sg2534
I0
sg2535
I1
sg2536
I0
sg2537
I1
stp2558
Rp2559
(dp2560
g1028
g7
sbssI63
(dp2561
I0
g0
(g1015
g1016
(dp2562
g2531
g635
sg2532
I0
sg2533
I0
sg2534
I0
sg2535
I1
sg2536
I0
sg2537
I1
stp2563
Rp2564
(dp2565
g1028
g7
sbsssI68
(dp2566
I1
(dp2567
I0
g0
(g1015
g1016
(dp2568
S'loc'
p2569
g371
sS'noHXfreeze'
p2570
I0
sS'tempCold'
p2571
I0
sS'level'
p2572
I0
sS'trackfl'
p2573
I1
sS'tempHot'
p2574
I0
sS'tempGood'
p2575
I1
stp2576
Rp2577
(dp2578
g1028
g7
sbssI73
(dp2579
I0
g0
(g1015
g1016
(dp2580
g2569
g371
sg2570
I0
sg2571
I0
sg2572
I0
sg2573
I1
sg2574
I0
sg2575
I1
stp2581
Rp2582
(dp2583
g1028
g7
sbsssI69
(dp2584
I0
(dp2585
I0
g0
(g1015
g1016
(dp2586
S'loc'
p2587
g374
sS'noHXfreeze'
p2588
I0
sS'tempCold'
p2589
I0
sS'level'
p2590
I2
sS'trackfl'
p2591
I1
sS'tempHot'
p2592
I0
sS'tempGood'
p2593
I1
stp2594
Rp2595
(dp2596
g1028
g7
sbssI72
(dp2597
I0
g0
(g1015
g1016
(dp2598
g2587
g374
sg2588
I0
sg2589
I0
sg2590
I2
sg2591
I1
sg2592
I0
sg2593
I1
stp2599
Rp2600
(dp2601
g1028
g7
sbssI71
(dp2602
I0
g0
(g1015
g1016
(dp2603
g2587
g374
sg2588
I0
sg2589
I0
sg2590
I2
sg2591
I1
sg2592
I0
sg2593
I1
stp2604
Rp2605
(dp2606
g1028
g7
sbsssI70
(dp2607
I72
(dp2608
I0
g0
(g1015
g1016
(dp2609
S'loc'
p2610
g374
sS'noHXfreeze'
p2611
I0
sS'tempCold'
p2612
I0
sS'level'
p2613
I0
sS'trackfl'
p2614
I1
sS'tempHot'
p2615
I0
sS'tempGood'
p2616
I1
stp2617
Rp2618
(dp2619
g1028
g7
sbssI71
(dp2620
I0
g0
(g1015
g1016
(dp2621
g2610
g374
sg2611
I0
sg2612
I0
sg2613
I0
sg2614
I1
sg2615
I0
sg2616
I1
stp2622
Rp2623
(dp2624
g1028
g7
sbsssI71
(dp2625
I1
(dp2626
I0
g0
(g1015
g1016
(dp2627
S'loc'
p2628
g368
sS'noHXfreeze'
p2629
I0
sS'tempCold'
p2630
I0
sS'level'
p2631
I2
sS'trackfl'
p2632
I1
sS'tempHot'
p2633
I0
sS'tempGood'
p2634
I1
stp2635
Rp2636
(dp2637
g1028
g7
sbssI74
(dp2638
I0
g0
(g1015
g1016
(dp2639
g2628
g368
sg2629
I0
sg2630
I0
sg2631
I2
sg2632
I1
sg2633
I0
sg2634
I1
stp2640
Rp2641
(dp2642
g1028
g7
sbssI68
(dp2643
I0
g0
(g1015
g1016
(dp2644
g2628
g368
sg2629
I0
sg2630
I0
sg2631
I2
sg2632
I1
sg2633
I0
sg2634
I1
stp2645
Rp2646
(dp2647
g1028
g7
sbssI73
(dp2648
I0
g0
(g1015
g1016
(dp2649
g2628
g368
sg2629
I0
sg2630
I0
sg2631
I2
sg2632
I1
sg2633
I0
sg2634
I1
stp2650
Rp2651
(dp2652
g1028
g7
sbsssI72
(dp2653
I1
(dp2654
I0
g0
(g1015
g1016
(dp2655
S'loc'
p2656
g368
sS'noHXfreeze'
p2657
I0
sS'tempCold'
p2658
I0
sS'level'
p2659
I1
sS'trackfl'
p2660
I1
sS'tempHot'
p2661
I0
sS'tempGood'
p2662
I1
stp2663
Rp2664
(dp2665
g1028
g7
sbssI68
(dp2666
I0
g0
(g1015
g1016
(dp2667
g2656
g368
sg2657
I0
sg2658
I0
sg2659
I1
sg2660
I1
sg2661
I0
sg2662
I1
stp2668
Rp2669
(dp2670
g1028
g7
sbssg1068
(dp2671
I0
g0
(g1015
g1016
(dp2672
g2656
g368
sg2657
I0
sg2658
I0
sg2659
I1
sg2660
I1
sg2661
I0
sg2662
I1
stp2673
Rp2674
(dp2675
g1028
g7
sbssI73
(dp2676
I0
g0
(g1015
g1016
(dp2677
g2656
g368
sg2657
I0
sg2658
I0
sg2659
I1
sg2660
I1
sg2661
I0
sg2662
I1
stp2678
Rp2679
(dp2680
g1028
g7
sbssI74
(dp2681
I0
g0
(g1015
g1016
(dp2682
g2656
g368
sg2657
I0
sg2658
I0
sg2659
I1
sg2660
I1
sg2661
I0
sg2662
I1
stp2683
Rp2684
(dp2685
g1028
g7
sbssI140
(dp2686
I0
g0
(g1015
g1016
(dp2687
g2656
g368
sg2657
I0
sg2658
I0
sg2659
I1
sg2660
I1
sg2661
I0
sg2662
I1
stp2688
Rp2689
(dp2690
g1028
g7
sbssI138
(dp2691
I0
g0
(g1015
g1016
(dp2692
g2656
g368
sg2657
I0
sg2658
I0
sg2659
I1
sg2660
I1
sg2661
I0
sg2662
I1
stp2693
Rp2694
(dp2695
g1028
g7
sbssI58
(dp2696
I0
g0
(g1015
g1016
(dp2697
g2656
g368
sg2657
I0
sg2658
I0
sg2659
I1
sg2660
I1
sg2661
I0
sg2662
I1
stp2698
Rp2699
(dp2700
g1028
g7
sbssI60
(dp2701
I0
g0
(g1015
g1016
(dp2702
g2656
g368
sg2657
I0
sg2658
I0
sg2659
I1
sg2660
I1
sg2661
I0
sg2662
I1
stp2703
Rp2704
(dp2705
g1028
g7
sbssI61
(dp2706
I0
g0
(g1015
g1016
(dp2707
g2656
g368
sg2657
I0
sg2658
I0
sg2659
I1
sg2660
I1
sg2661
I0
sg2662
I1
stp2708
Rp2709
(dp2710
g1028
g7
sbsssI73
(dp2711
I74
(dp2712
I0
g0
(g1015
g1016
(dp2713
S'loc'
p2714
g368
sS'noHXfreeze'
p2715
I0
sS'tempCold'
p2716
I0
sS'level'
p2717
I0
sS'trackfl'
p2718
I1
sS'tempHot'
p2719
I0
sS'tempGood'
p2720
I1
stp2721
Rp2722
(dp2723
g1028
g7
sbssI140
(dp2724
I0
g0
(g1015
g1016
(dp2725
g2714
g368
sg2715
I0
sg2716
I0
sg2717
I0
sg2718
I1
sg2719
I0
sg2720
I1
stp2726
Rp2727
(dp2728
g1028
g7
sbssI138
(dp2729
I0
g0
(g1015
g1016
(dp2730
g2714
g368
sg2715
I0
sg2716
I0
sg2717
I0
sg2718
I1
sg2719
I0
sg2720
I1
stp2731
Rp2732
(dp2733
g1028
g7
sbssI58
(dp2734
I0
g0
(g1015
g1016
(dp2735
g2714
g368
sg2715
I0
sg2716
I0
sg2717
I0
sg2718
I1
sg2719
I0
sg2720
I1
stp2736
Rp2737
(dp2738
g1028
g7
sbssI60
(dp2739
I0
g0
(g1015
g1016
(dp2740
g2714
g368
sg2715
I0
sg2716
I0
sg2717
I0
sg2718
I1
sg2719
I0
sg2720
I1
stp2741
Rp2742
(dp2743
g1028
g7
sbssI61
(dp2744
I0
g0
(g1015
g1016
(dp2745
g2714
g368
sg2715
I0
sg2716
I0
sg2717
I0
sg2718
I1
sg2719
I0
sg2720
I1
stp2746
Rp2747
(dp2748
g1028
g7
sbsssI74
(dp2749
I75
(dp2750
I0
g0
(g1015
g1016
(dp2751
S'loc'
p2752
g369
sS'noHXfreeze'
p2753
I0
sS'tempCold'
p2754
I0
sS'level'
p2755
I0
sS'trackfl'
p2756
I1
sS'tempHot'
p2757
I0
sS'tempGood'
p2758
I1
stp2759
Rp2760
(dp2761
g1028
g7
sbsssI75
(dp2762
I81
(dp2763
I0
g0
(g1015
g1016
(dp2764
S'loc'
p2765
g68
sS'noHXfreeze'
p2766
I0
sS'tempCold'
p2767
I0
sS'level'
p2768
I0
sS'trackfl'
p2769
I1
sS'tempHot'
p2770
I0
sS'tempGood'
p2771
I1
stp2772
Rp2773
(dp2774
g1028
g7
sbssI76
(dp2775
I0
g0
(g1015
g1016
(dp2776
g2765
g68
sg2766
I0
sg2767
I0
sg2768
I0
sg2769
I1
sg2770
I0
sg2771
I1
stp2777
Rp2778
(dp2779
g1028
g7
sbsssI76
(dp2780
I80
(dp2781
I0
g0
(g1015
g1016
(dp2782
S'loc'
p2783
g72
sS'noHXfreeze'
p2784
I1
sS'tempCold'
p2785
I0
sS'level'
p2786
I0
sS'trackfl'
p2787
I1
sS'tempHot'
p2788
I0
sS'tempGood'
p2789
I1
stp2790
Rp2791
(dp2792
g1028
g7
sbssI79
(dp2793
I0
g0
(g1015
g1016
(dp2794
g2783
g72
sg2784
I1
sg2785
I0
sg2786
I0
sg2787
I1
sg2788
I0
sg2789
I1
stp2795
Rp2796
(dp2797
g1028
g7
sbsssI77
(dp2798
I80
(dp2799
I0
g0
(g1015
g1016
(dp2800
S'loc'
p2801
g72
sS'noHXfreeze'
p2802
I1
sS'tempCold'
p2803
I0
sS'level'
p2804
I2
sS'trackfl'
p2805
I1
sS'tempHot'
p2806
I0
sS'tempGood'
p2807
I1
stp2808
Rp2809
(dp2810
g1028
g7
sbssI79
(dp2811
I0
g0
(g1015
g1016
(dp2812
g2801
g72
sg2802
I1
sg2803
I0
sg2804
I2
sg2805
I1
sg2806
I0
sg2807
I1
stp2813
Rp2814
(dp2815
g1028
g7
sbsssI78
(dp2816
I80
(dp2817
I0
g0
(g1015
g1016
(dp2818
S'loc'
p2819
g72
sS'noHXfreeze'
p2820
I1
sS'tempCold'
p2821
I0
sS'level'
p2822
I1
sS'trackfl'
p2823
I1
sS'tempHot'
p2824
I0
sS'tempGood'
p2825
I1
stp2826
Rp2827
(dp2828
g1028
g7
sbssg1068
(dp2829
I0
g0
(g1015
g1016
(dp2830
g2819
g72
sg2820
I1
sg2821
I0
sg2822
I1
sg2823
I1
sg2824
I0
sg2825
I1
stp2831
Rp2832
(dp2833
g1028
g7
sbssI79
(dp2834
I0
g0
(g1015
g1016
(dp2835
g2819
g72
sg2820
I1
sg2821
I0
sg2822
I1
sg2823
I1
sg2824
I0
sg2825
I1
stp2836
Rp2837
(dp2838
g1028
g7
sbsssI79
(dp2839
I81
(dp2840
I0
g0
(g1015
g1016
(dp2841
S'loc'
p2842
g71
sS'noHXfreeze'
p2843
I0
sS'tempCold'
p2844
I0
sS'level'
p2845
I2
sS'trackfl'
p2846
I1
sS'tempHot'
p2847
I0
sS'tempGood'
p2848
I1
stp2849
Rp2850
(dp2851
g1028
g7
sbssI82
(dp2852
I0
g0
(g1015
g1016
(dp2853
g2842
g71
sg2843
I0
sg2844
I0
sg2845
I2
sg2846
I1
sg2847
I0
sg2848
I1
stp2854
Rp2855
(dp2856
g1028
g7
sbssI75
(dp2857
I0
g0
(g1015
g1016
(dp2858
g2842
g71
sg2843
I0
sg2844
I0
sg2845
I2
sg2846
I1
sg2847
I0
sg2848
I1
stp2859
Rp2860
(dp2861
g1028
g7
sbssI76
(dp2862
I0
g0
(g1015
g1016
(dp2863
g2842
g71
sg2843
I0
sg2844
I0
sg2845
I2
sg2846
I1
sg2847
I0
sg2848
I1
stp2864
Rp2865
(dp2866
g1028
g7
sbsssI80
(dp2867
I135
(dp2868
I0
g0
(g1015
g1016
(dp2869
S'loc'
p2870
g71
sS'noHXfreeze'
p2871
I0
sS'tempCold'
p2872
I0
sS'level'
p2873
I1
sS'trackfl'
p2874
I1
sS'tempHot'
p2875
I0
sS'tempGood'
p2876
I1
stp2877
Rp2878
(dp2879
g1028
g7
sbssI136
(dp2880
I0
g0
(g1015
g1016
(dp2881
g2870
g71
sg2871
I0
sg2872
I0
sg2873
I1
sg2874
I1
sg2875
I0
sg2876
I1
stp2882
Rp2883
(dp2884
g1028
g7
sbssI137
(dp2885
I0
g0
(g1015
g1016
(dp2886
g2870
g71
sg2871
I0
sg2872
I0
sg2873
I1
sg2874
I1
sg2875
I0
sg2876
I1
stp2887
Rp2888
(dp2889
g1028
g7
sbssI75
(dp2890
I0
g0
(g1015
g1016
(dp2891
g2870
g71
sg2871
I0
sg2872
I0
sg2873
I1
sg2874
I1
sg2875
I0
sg2876
I1
stp2892
Rp2893
(dp2894
g1028
g7
sbssI76
(dp2895
I0
g0
(g1015
g1016
(dp2896
g2870
g71
sg2871
I0
sg2872
I0
sg2873
I1
sg2874
I1
sg2875
I0
sg2876
I1
stp2897
Rp2898
(dp2899
g1028
g7
sbssI77
(dp2900
I0
g0
(g1015
g1016
(dp2901
g2870
g71
sg2871
I0
sg2872
I0
sg2873
I1
sg2874
I1
sg2875
I0
sg2876
I1
stp2902
Rp2903
(dp2904
g1028
g7
sbssI78
(dp2905
I0
g0
(g1015
g1016
(dp2906
g2870
g71
sg2871
I0
sg2872
I0
sg2873
I1
sg2874
I1
sg2875
I0
sg2876
I1
stp2907
Rp2908
(dp2909
g1028
g7
sbssI81
(dp2910
I0
g0
(g1015
g1016
(dp2911
g2870
g71
sg2871
I0
sg2872
I0
sg2873
I1
sg2874
I1
sg2875
I0
sg2876
I1
stp2912
Rp2913
(dp2914
g1028
g7
sbssI82
(dp2915
I0
g0
(g1015
g1016
(dp2916
g2870
g71
sg2871
I0
sg2872
I0
sg2873
I1
sg2874
I1
sg2875
I0
sg2876
I1
stp2917
Rp2918
(dp2919
g1028
g7
sbssg1068
(dp2920
I0
g0
(g1015
g1016
(dp2921
g2870
g71
sg2871
I0
sg2872
I0
sg2873
I1
sg2874
I1
sg2875
I0
sg2876
I1
stp2922
Rp2923
(dp2924
g1028
g7
sbsssI81
(dp2925
I135
(dp2926
I0
g0
(g1015
g1016
(dp2927
S'loc'
p2928
g71
sS'noHXfreeze'
p2929
I0
sS'tempCold'
p2930
I0
sS'level'
p2931
I0
sS'trackfl'
p2932
I1
sS'tempHot'
p2933
I0
sS'tempGood'
p2934
I1
stp2935
Rp2936
(dp2937
g1028
g7
sbssI136
(dp2938
I0
g0
(g1015
g1016
(dp2939
g2928
g71
sg2929
I0
sg2930
I0
sg2931
I0
sg2932
I1
sg2933
I0
sg2934
I1
stp2940
Rp2941
(dp2942
g1028
g7
sbssI137
(dp2943
I0
g0
(g1015
g1016
(dp2944
g2928
g71
sg2929
I0
sg2930
I0
sg2931
I0
sg2932
I1
sg2933
I0
sg2934
I1
stp2945
Rp2946
(dp2947
g1028
g7
sbssI77
(dp2948
I0
g0
(g1015
g1016
(dp2949
g2928
g71
sg2929
I0
sg2930
I0
sg2931
I0
sg2932
I1
sg2933
I0
sg2934
I1
stp2950
Rp2951
(dp2952
g1028
g7
sbssI78
(dp2953
I0
g0
(g1015
g1016
(dp2954
g2928
g71
sg2929
I0
sg2930
I0
sg2931
I0
sg2932
I1
sg2933
I0
sg2934
I1
stp2955
Rp2956
(dp2957
g1028
g7
sbssI82
(dp2958
I0
g0
(g1015
g1016
(dp2959
g2928
g71
sg2929
I0
sg2930
I0
sg2931
I0
sg2932
I1
sg2933
I0
sg2934
I1
stp2960
Rp2961
(dp2962
g1028
g7
sbsssI82
(dp2963
I83
(dp2964
I0
g0
(g1015
g1016
(dp2965
S'loc'
p2966
g74
sS'noHXfreeze'
p2967
I0
sS'tempCold'
p2968
I0
sS'level'
p2969
I0
sS'trackfl'
p2970
I1
sS'tempHot'
p2971
I0
sS'tempGood'
p2972
I1
stp2973
Rp2974
(dp2975
g1028
g7
sbsssI83
(dp2976
I10
(dp2977
I0
g0
(g1015
g1016
(dp2978
S'loc'
p2979
g77
sS'noHXfreeze'
p2980
I0
sS'tempCold'
p2981
I0
sS'level'
p2982
I0
sS'trackfl'
p2983
I1
sS'tempHot'
p2984
I0
sS'tempGood'
p2985
I1
stp2986
Rp2987
(dp2988
g1028
g7
sbssI84
(dp2989
I0
g0
(g1015
g1016
(dp2990
g2979
g77
sg2980
I0
sg2981
I0
sg2982
I0
sg2983
I1
sg2984
I0
sg2985
I1
stp2991
Rp2992
(dp2993
g1028
g7
sbssI93
(dp2994
I0
g0
(g1015
g1016
(dp2995
g2979
g77
sg2980
I0
sg2981
I0
sg2982
I0
sg2983
I1
sg2984
I0
sg2985
I1
stp2996
Rp2997
(dp2998
g1028
g7
sbsssI84
(dp2999
I86
(dp3000
I0
g0
(g1015
g1016
(dp3001
S'loc'
p3002
g767
sS'noHXfreeze'
p3003
I0
sS'tempCold'
p3004
I0
sS'level'
p3005
I0
sS'trackfl'
p3006
I1
sS'tempHot'
p3007
I0
sS'tempGood'
p3008
I1
stp3009
Rp3010
(dp3011
g1028
g7
sbssI87
(dp3012
I0
g0
(g1015
g1016
(dp3013
g3002
g767
sg3003
I0
sg3004
I0
sg3005
I0
sg3006
I1
sg3007
I0
sg3008
I1
stp3014
Rp3015
(dp3016
g1028
g7
sbsssI85
(dp3017
I86
(dp3018
I0
g0
(g1015
g1016
(dp3019
S'loc'
p3020
g764
sS'noHXfreeze'
p3021
I0
sS'tempCold'
p3022
I0
sS'level'
p3023
I2
sS'trackfl'
p3024
I1
sS'tempHot'
p3025
I0
sS'tempGood'
p3026
I1
stp3027
Rp3028
(dp3029
g1028
g7
sbsssI86
(dp3030
I88
(dp3031
I0
g0
(g1015
g1016
(dp3032
S'loc'
p3033
g766
sS'noHXfreeze'
p3034
I1
sS'tempCold'
p3035
I0
sS'level'
p3036
I2
sS'trackfl'
p3037
I1
sS'tempHot'
p3038
I0
sS'tempGood'
p3039
I1
stp3040
Rp3041
(dp3042
g1028
g7
sbssI89
(dp3043
I0
g0
(g1015
g1016
(dp3044
g3033
g766
sg3034
I1
sg3035
I0
sg3036
I2
sg3037
I1
sg3038
I0
sg3039
I1
stp3045
Rp3046
(dp3047
g1028
g7
sbssI90
(dp3048
I0
g0
(g1015
g1016
(dp3049
g3033
g766
sg3034
I1
sg3035
I0
sg3036
I2
sg3037
I1
sg3038
I0
sg3039
I1
stp3050
Rp3051
(dp3052
g1028
g7
sbsssI87
(dp3053
I88
(dp3054
I0
g0
(g1015
g1016
(dp3055
S'loc'
p3056
g766
sS'noHXfreeze'
p3057
I1
sS'tempCold'
p3058
I0
sS'level'
p3059
I1
sS'trackfl'
p3060
I1
sS'tempHot'
p3061
I0
sS'tempGood'
p3062
I1
stp3063
Rp3064
(dp3065
g1028
g7
sbssI89
(dp3066
I0
g0
(g1015
g1016
(dp3067
g3056
g766
sg3057
I1
sg3058
I0
sg3059
I1
sg3060
I1
sg3061
I0
sg3062
I1
stp3068
Rp3069
(dp3070
g1028
g7
sbssI90
(dp3071
I0
g0
(g1015
g1016
(dp3072
g3056
g766
sg3057
I1
sg3058
I0
sg3059
I1
sg3060
I1
sg3061
I0
sg3062
I1
stp3073
Rp3074
(dp3075
g1028
g7
sbssg1068
(dp3076
I0
g0
(g1015
g1016
(dp3077
g3056
g766
sg3057
I1
sg3058
I0
sg3059
I1
sg3060
I1
sg3061
I0
sg3062
I1
stp3078
Rp3079
(dp3080
g1028
g7
sbsssI88
(dp3081
I2
(dp3082
I0
g0
(g1015
g1016
(dp3083
S'loc'
p3084
g767
sS'noHXfreeze'
p3085
I0
sS'tempCold'
p3086
I0
sS'level'
p3087
I2
sS'trackfl'
p3088
I1
sS'tempHot'
p3089
I0
sS'tempGood'
p3090
I1
stp3091
Rp3092
(dp3093
g1028
g7
sbssI91
(dp3094
I0
g0
(g1015
g1016
(dp3095
g3084
g767
sg3085
I0
sg3086
I0
sg3087
I2
sg3088
I1
sg3089
I0
sg3090
I1
stp3096
Rp3097
(dp3098
g1028
g7
sbssI92
(dp3099
I0
g0
(g1015
g1016
(dp3100
g3084
g767
sg3085
I0
sg3086
I0
sg3087
I2
sg3088
I1
sg3089
I0
sg3090
I1
stp3101
Rp3102
(dp3103
g1028
g7
sbssI10
(dp3104
I0
g0
(g1015
g1016
(dp3105
g3084
g767
sg3085
I0
sg3086
I0
sg3087
I2
sg3088
I1
sg3089
I0
sg3090
I1
stp3106
Rp3107
(dp3108
g1028
g7
sbsssI89
(dp3109
I2
(dp3110
I0
g0
(g1015
g1016
(dp3111
S'loc'
p3112
g767
sS'noHXfreeze'
p3113
I0
sS'tempCold'
p3114
I0
sS'level'
p3115
I1
sS'trackfl'
p3116
I1
sS'tempHot'
p3117
I0
sS'tempGood'
p3118
I1
stp3119
Rp3120
(dp3121
g1028
g7
sbssg1068
(dp3122
I0
g0
(g1015
g1016
(dp3123
g3112
g767
sg3113
I0
sg3114
I0
sg3115
I1
sg3116
I1
sg3117
I0
sg3118
I1
stp3124
Rp3125
(dp3126
g1028
g7
sbssI10
(dp3127
I0
g0
(g1015
g1016
(dp3128
g3112
g767
sg3113
I0
sg3114
I0
sg3115
I1
sg3116
I1
sg3117
I0
sg3118
I1
stp3129
Rp3130
(dp3131
g1028
g7
sbssI86
(dp3132
I0
g0
(g1015
g1016
(dp3133
g3112
g767
sg3113
I0
sg3114
I0
sg3115
I1
sg3116
I1
sg3117
I0
sg3118
I1
stp3134
Rp3135
(dp3136
g1028
g7
sbssI87
(dp3137
I0
g0
(g1015
g1016
(dp3138
g3112
g767
sg3113
I0
sg3114
I0
sg3115
I1
sg3116
I1
sg3117
I0
sg3118
I1
stp3139
Rp3140
(dp3141
g1028
g7
sbssI91
(dp3142
I0
g0
(g1015
g1016
(dp3143
g3112
g767
sg3113
I0
sg3114
I0
sg3115
I1
sg3116
I1
sg3117
I0
sg3118
I1
stp3144
Rp3145
(dp3146
g1028
g7
sbssI92
(dp3147
I0
g0
(g1015
g1016
(dp3148
g3112
g767
sg3113
I0
sg3114
I0
sg3115
I1
sg3116
I1
sg3117
I0
sg3118
I1
stp3149
Rp3150
(dp3151
g1028
g7
sbsssI90
(dp3152
I2
(dp3153
I0
g0
(g1015
g1016
(dp3154
S'loc'
p3155
g767
sS'noHXfreeze'
p3156
I0
sS'tempCold'
p3157
I0
sS'level'
p3158
I0
sS'trackfl'
p3159
I1
sS'tempHot'
p3160
I0
sS'tempGood'
p3161
I1
stp3162
Rp3163
(dp3164
g1028
g7
sbssI91
(dp3165
I0
g0
(g1015
g1016
(dp3166
g3155
g767
sg3156
I0
sg3157
I0
sg3158
I0
sg3159
I1
sg3160
I0
sg3161
I1
stp3167
Rp3168
(dp3169
g1028
g7
sbssI92
(dp3170
I0
g0
(g1015
g1016
(dp3171
g3155
g767
sg3156
I0
sg3157
I0
sg3158
I0
sg3159
I1
sg3160
I0
sg3161
I1
stp3172
Rp3173
(dp3174
g1028
g7
sbsssI91
(dp3175
I99
(dp3176
I0
g0
(g1015
g1016
(dp3177
S'loc'
p3178
g765
sS'noHXfreeze'
p3179
I0
sS'tempCold'
p3180
I0
sS'level'
p3181
I2
sS'trackfl'
p3182
I1
sS'tempHot'
p3183
I0
sS'tempGood'
p3184
I1
stp3185
Rp3186
(dp3187
g1028
g7
sbssI83
(dp3188
I0
g0
(g1015
g1016
(dp3189
g3178
g765
sg3179
I0
sg3180
I0
sg3181
I2
sg3182
I1
sg3183
I0
sg3184
I1
stp3190
Rp3191
(dp3192
g1028
g7
sbssI84
(dp3193
I0
g0
(g1015
g1016
(dp3194
g3178
g765
sg3179
I0
sg3180
I0
sg3181
I2
sg3182
I1
sg3183
I0
sg3184
I1
stp3195
Rp3196
(dp3197
g1028
g7
sbssI93
(dp3198
I0
g0
(g1015
g1016
(dp3199
g3178
g765
sg3179
I0
sg3180
I0
sg3181
I2
sg3182
I1
sg3183
I0
sg3184
I1
stp3200
Rp3201
(dp3202
g1028
g7
sbsssI92
(dp3203
I99
(dp3204
I0
g0
(g1015
g1016
(dp3205
S'loc'
p3206
g765
sS'noHXfreeze'
p3207
I0
sS'tempCold'
p3208
I0
sS'level'
p3209
I1
sS'trackfl'
p3210
I1
sS'tempHot'
p3211
I0
sS'tempGood'
p3212
I1
stp3213
Rp3214
(dp3215
g1028
g7
sbssI132
(dp3216
I0
g0
(g1015
g1016
(dp3217
g3206
g765
sg3207
I0
sg3208
I0
sg3209
I1
sg3210
I1
sg3211
I0
sg3212
I1
stp3218
Rp3219
(dp3220
g1028
g7
sbssI133
(dp3221
I0
g0
(g1015
g1016
(dp3222
g3206
g765
sg3207
I0
sg3208
I0
sg3209
I1
sg3210
I1
sg3211
I0
sg3212
I1
stp3223
Rp3224
(dp3225
g1028
g7
sbssI134
(dp3226
I0
g0
(g1015
g1016
(dp3227
g3206
g765
sg3207
I0
sg3208
I0
sg3209
I1
sg3210
I1
sg3211
I0
sg3212
I1
stp3228
Rp3229
(dp3230
g1028
g7
sbssg1068
(dp3231
I0
g0
(g1015
g1016
(dp3232
g3206
g765
sg3207
I0
sg3208
I0
sg3209
I1
sg3210
I1
sg3211
I0
sg3212
I1
stp3233
Rp3234
(dp3235
g1028
g7
sbssI11
(dp3236
I0
g0
(g1015
g1016
(dp3237
g3206
g765
sg3207
I0
sg3208
I0
sg3209
I1
sg3210
I1
sg3211
I0
sg3212
I1
stp3238
Rp3239
(dp3240
g1028
g7
sbssI83
(dp3241
I0
g0
(g1015
g1016
(dp3242
g3206
g765
sg3207
I0
sg3208
I0
sg3209
I1
sg3210
I1
sg3211
I0
sg3212
I1
stp3243
Rp3244
(dp3245
g1028
g7
sbssI84
(dp3246
I0
g0
(g1015
g1016
(dp3247
g3206
g765
sg3207
I0
sg3208
I0
sg3209
I1
sg3210
I1
sg3211
I0
sg3212
I1
stp3248
Rp3249
(dp3250
g1028
g7
sbssI85
(dp3251
I0
g0
(g1015
g1016
(dp3252
g3206
g765
sg3207
I0
sg3208
I0
sg3209
I1
sg3210
I1
sg3211
I0
sg3212
I1
stp3253
Rp3254
(dp3255
g1028
g7
sbssI93
(dp3256
I0
g0
(g1015
g1016
(dp3257
g3206
g765
sg3207
I0
sg3208
I0
sg3209
I1
sg3210
I1
sg3211
I0
sg3212
I1
stp3258
Rp3259
(dp3260
g1028
g7
sbsssI93
(dp3261
I99
(dp3262
I0
g0
(g1015
g1016
(dp3263
S'loc'
p3264
g765
sS'noHXfreeze'
p3265
I0
sS'tempCold'
p3266
I0
sS'level'
p3267
I0
sS'trackfl'
p3268
I1
sS'tempHot'
p3269
I0
sS'tempGood'
p3270
I1
stp3271
Rp3272
(dp3273
g1028
g7
sbssI132
(dp3274
I0
g0
(g1015
g1016
(dp3275
g3264
g765
sg3265
I0
sg3266
I0
sg3267
I0
sg3268
I1
sg3269
I0
sg3270
I1
stp3276
Rp3277
(dp3278
g1028
g7
sbssI133
(dp3279
I0
g0
(g1015
g1016
(dp3280
g3264
g765
sg3265
I0
sg3266
I0
sg3267
I0
sg3268
I1
sg3269
I0
sg3270
I1
stp3281
Rp3282
(dp3283
g1028
g7
sbssI134
(dp3284
I0
g0
(g1015
g1016
(dp3285
g3264
g765
sg3265
I0
sg3266
I0
sg3267
I0
sg3268
I1
sg3269
I0
sg3270
I1
stp3286
Rp3287
(dp3288
g1028
g7
sbssI11
(dp3289
I0
g0
(g1015
g1016
(dp3290
g3264
g765
sg3265
I0
sg3266
I0
sg3267
I0
sg3268
I1
sg3269
I0
sg3270
I1
stp3291
Rp3292
(dp3293
g1028
g7
sbssI85
(dp3294
I0
g0
(g1015
g1016
(dp3295
g3264
g765
sg3265
I0
sg3266
I0
sg3267
I0
sg3268
I1
sg3269
I0
sg3270
I1
stp3296
Rp3297
(dp3298
g1028
g7
sbsssI94
(dp3299
I97
(dp3300
I0
g0
(g1015
g1016
(dp3301
S'loc'
p3302
g606
sS'noHXfreeze'
p3303
I0
sS'tempCold'
p3304
I0
sS'level'
p3305
I2
sS'trackfl'
p3306
I3
sS'tempHot'
p3307
I0
sS'tempGood'
p3308
I0
stp3309
Rp3310
(dp3311
g1028
g7
sbssI98
(dp3312
I0
g0
(g1015
g1016
(dp3313
g3302
g606
sg3303
I0
sg3304
I0
sg3305
I2
sg3306
I3
sg3307
I0
sg3308
I0
stp3314
Rp3315
(dp3316
g1028
g7
sbsssI95
(dp3317
I97
(dp3318
I0
g0
(g1015
g1016
(dp3319
S'loc'
p3320
g606
sS'noHXfreeze'
p3321
I0
sS'tempCold'
p3322
I0
sS'level'
p3323
I1
sS'trackfl'
p3324
I3
sS'tempHot'
p3325
I0
sS'tempGood'
p3326
I0
stp3327
Rp3328
(dp3329
g1028
g7
sbssI98
(dp3330
I0
g0
(g1015
g1016
(dp3331
g3320
g606
sg3321
I0
sg3322
I0
sg3323
I1
sg3324
I3
sg3325
I0
sg3326
I0
stp3332
Rp3333
(dp3334
g1028
g7
sbsssI96
(dp3335
I97
(dp3336
I0
g0
(g1015
g1016
(dp3337
S'loc'
p3338
g606
sS'noHXfreeze'
p3339
I0
sS'tempCold'
p3340
I0
sS'level'
p3341
I0
sS'trackfl'
p3342
I3
sS'tempHot'
p3343
I0
sS'tempGood'
p3344
I0
stp3345
Rp3346
(dp3347
g1028
g7
sbssI98
(dp3348
I0
g0
(g1015
g1016
(dp3349
g3338
g606
sg3339
I0
sg3340
I0
sg3341
I0
sg3342
I3
sg3343
I0
sg3344
I0
stp3350
Rp3351
(dp3352
g1028
g7
sbsssI97
(dp3353
I130
(dp3354
I0
g0
(g1015
g1016
(dp3355
S'loc'
p3356
g605
sS'noHXfreeze'
p3357
I0
sS'tempCold'
p3358
I0
sS'level'
p3359
I2
sS'trackfl'
p3360
I3
sS'tempHot'
p3361
I0
sS'tempGood'
p3362
I0
stp3363
Rp3364
(dp3365
g1028
g7
sbssI101
(dp3366
I0
g0
(g1015
g1016
(dp3367
g3356
g605
sg3357
I0
sg3358
I0
sg3359
I2
sg3360
I3
sg3361
I0
sg3362
I0
stp3368
Rp3369
(dp3370
g1028
g7
sbsssI98
(dp3371
I101
(dp3372
I0
g0
(g1015
g1016
(dp3373
S'loc'
p3374
g605
sS'noHXfreeze'
p3375
I0
sS'tempCold'
p3376
I0
sS'level'
p3377
I1
sS'trackfl'
p3378
I3
sS'tempHot'
p3379
I0
sS'tempGood'
p3380
I0
stp3381
Rp3382
(dp3383
g1028
g7
sbsssI99
(dp3384
I101
(dp3385
I0
g0
(g1015
g1016
(dp3386
S'loc'
p3387
g770
sS'noHXfreeze'
p3388
I0
sS'tempCold'
p3389
I0
sS'level'
p3390
I0
sS'trackfl'
p3391
I1
sS'tempHot'
p3392
I0
sS'tempGood'
p3393
I1
stp3394
Rp3395
(dp3396
g1028
g7
sbsssI100
(dp3397
I102
(dp3398
I0
g0
(g1015
g1016
(dp3399
S'loc'
p3400
g595
sS'noHXfreeze'
p3401
I0
sS'tempCold'
p3402
I0
sS'level'
p3403
I1
sS'trackfl'
p3404
I3
sS'tempHot'
p3405
I0
sS'tempGood'
p3406
I0
stp3407
Rp3408
(dp3409
g1028
g7
sbsssI101
(dp3410
I130
(dp3411
I0
g0
(g1015
g1016
(dp3412
S'loc'
p3413
g605
sS'noHXfreeze'
p3414
I0
sS'tempCold'
p3415
I0
sS'level'
p3416
I0
sS'trackfl'
p3417
I3
sS'tempHot'
p3418
I0
sS'tempGood'
p3419
I0
stp3420
Rp3421
(dp3422
g1028
g7
sbssI131
(dp3423
I0
g0
(g1015
g1016
(dp3424
g3413
g605
sg3414
I0
sg3415
I0
sg3416
I0
sg3417
I3
sg3418
I0
sg3419
I0
stp3425
Rp3426
(dp3427
g1028
g7
sbssI102
(dp3428
I0
g0
(g1015
g1016
(dp3429
g3413
g605
sg3414
I0
sg3415
I0
sg3416
I0
sg3417
I3
sg3418
I0
sg3419
I0
stp3430
Rp3431
(dp3432
g1028
g7
sbsssI102
(dp3433
I104
(dp3434
I0
g0
(g1015
g1016
(dp3435
S'loc'
p3436
g606
sS'noHXfreeze'
p3437
I0
sS'tempCold'
p3438
I0
sS'level'
p3439
I0
sS'trackfl'
p3440
I3
sS'tempHot'
p3441
I0
sS'tempGood'
p3442
I0
stp3443
Rp3444
(dp3445
g1028
g7
sbssI9
(dp3446
I0
g0
(g1015
g1016
(dp3447
g3436
g606
sg3437
I0
sg3438
I0
sg3439
I0
sg3440
I3
sg3441
I0
sg3442
I0
stp3448
Rp3449
(dp3450
g1028
g7
sbsssI103
(dp3451
I105
(dp3452
I0
g0
(g1015
g1016
(dp3453
S'loc'
p3454
g595
sS'noHXfreeze'
p3455
I0
sS'tempCold'
p3456
I0
sS'level'
p3457
I2
sS'trackfl'
p3458
I3
sS'tempHot'
p3459
I0
sS'tempGood'
p3460
I0
stp3461
Rp3462
(dp3463
g1028
g7
sbssI102
(dp3464
I0
g0
(g1015
g1016
(dp3465
g3454
g595
sg3455
I0
sg3456
I0
sg3457
I2
sg3458
I3
sg3459
I0
sg3460
I0
stp3466
Rp3467
(dp3468
g1028
g7
sbsssI104
(dp3469
I105
(dp3470
I0
g0
(g1015
g1016
(dp3471
S'loc'
p3472
g595
sS'noHXfreeze'
p3473
I0
sS'tempCold'
p3474
I0
sS'level'
p3475
I0
sS'trackfl'
p3476
I3
sS'tempHot'
p3477
I0
sS'tempGood'
p3478
I0
stp3479
Rp3480
(dp3481
g1028
g7
sbssI106
(dp3482
I0
g0
(g1015
g1016
(dp3483
g3472
g595
sg3473
I0
sg3474
I0
sg3475
I0
sg3476
I3
sg3477
I0
sg3478
I0
stp3484
Rp3485
(dp3486
g1028
g7
sbssI129
(dp3487
I0
g0
(g1015
g1016
(dp3488
g3472
g595
sg3473
I0
sg3474
I0
sg3475
I0
sg3476
I3
sg3477
I0
sg3478
I0
stp3489
Rp3490
(dp3491
g1028
g7
sbsssI105
(dp3492
I128
(dp3493
I0
g0
(g1015
g1016
(dp3494
S'loc'
p3495
g606
sS'noHXfreeze'
p3496
I0
sS'tempCold'
p3497
I0
sS'level'
p3498
I1
sS'trackfl'
p3499
I3
sS'tempHot'
p3500
I0
sS'tempGood'
p3501
I0
stp3502
Rp3503
(dp3504
g1028
g7
sbssI107
(dp3505
I0
g0
(g1015
g1016
(dp3506
g3495
g606
sg3496
I0
sg3497
I0
sg3498
I1
sg3499
I3
sg3500
I0
sg3501
I0
stp3507
Rp3508
(dp3509
g1028
g7
sbsssI106
(dp3510
I128
(dp3511
I0
g0
(g1015
g1016
(dp3512
S'loc'
p3513
g596
sS'noHXfreeze'
p3514
I0
sS'tempCold'
p3515
I0
sS'level'
p3516
I0
sS'trackfl'
p3517
I3
sS'tempHot'
p3518
I0
sS'tempGood'
p3519
I0
stp3520
Rp3521
(dp3522
g1028
g7
sbssI107
(dp3523
I0
g0
(g1015
g1016
(dp3524
g3513
g596
sg3514
I0
sg3515
I0
sg3516
I0
sg3517
I3
sg3518
I0
sg3519
I0
stp3525
Rp3526
(dp3527
g1028
g7
sbssI108
(dp3528
I0
g0
(g1015
g1016
(dp3529
g3513
g596
sg3514
I0
sg3515
I0
sg3516
I0
sg3517
I3
sg3518
I0
sg3519
I0
stp3530
Rp3531
(dp3532
g1028
g7
sbssI113
(dp3533
I0
g0
(g1015
g1016
(dp3534
g3513
g596
sg3514
I0
sg3515
I0
sg3516
I0
sg3517
I3
sg3518
I0
sg3519
I0
stp3535
Rp3536
(dp3537
g1028
g7
sbssI122
(dp3538
I0
g0
(g1015
g1016
(dp3539
g3513
g596
sg3514
I0
sg3515
I0
sg3516
I0
sg3517
I3
sg3518
I0
sg3519
I0
stp3540
Rp3541
(dp3542
g1028
g7
sbssI124
(dp3543
I0
g0
(g1015
g1016
(dp3544
g3513
g596
sg3514
I0
sg3515
I0
sg3516
I0
sg3517
I3
sg3518
I0
sg3519
I0
stp3545
Rp3546
(dp3547
g1028
g7
sbssI125
(dp3548
I0
g0
(g1015
g1016
(dp3549
g3513
g596
sg3514
I0
sg3515
I0
sg3516
I0
sg3517
I3
sg3518
I0
sg3519
I0
stp3550
Rp3551
(dp3552
g1028
g7
sbssI126
(dp3553
I0
g0
(g1015
g1016
(dp3554
g3513
g596
sg3514
I0
sg3515
I0
sg3516
I0
sg3517
I3
sg3518
I0
sg3519
I0
stp3555
Rp3556
(dp3557
g1028
g7
sbssI127
(dp3558
I0
g0
(g1015
g1016
(dp3559
g3513
g596
sg3514
I0
sg3515
I0
sg3516
I0
sg3517
I3
sg3518
I0
sg3519
I0
stp3560
Rp3561
(dp3562
g1028
g7
sbsssI107
(dp3563
I96
(dp3564
I0
g0
(g1015
g1016
(dp3565
S'loc'
p3566
g602
sS'noHXfreeze'
p3567
I1
sS'tempCold'
p3568
I0
sS'level'
p3569
I1
sS'trackfl'
p3570
I3
sS'tempHot'
p3571
I0
sS'tempGood'
p3572
I0
stp3573
Rp3574
(dp3575
g1028
g7
sbssI109
(dp3576
I0
g0
(g1015
g1016
(dp3577
g3566
g602
sg3567
I1
sg3568
I0
sg3569
I1
sg3570
I3
sg3571
I0
sg3572
I0
stp3578
Rp3579
(dp3580
g1028
g7
sbssI110
(dp3581
I0
g0
(g1015
g1016
(dp3582
g3566
g602
sg3567
I1
sg3568
I0
sg3569
I1
sg3570
I3
sg3571
I0
sg3572
I0
stp3583
Rp3584
(dp3585
g1028
g7
sbssI111
(dp3586
I0
g0
(g1015
g1016
(dp3587
g3566
g602
sg3567
I1
sg3568
I0
sg3569
I1
sg3570
I3
sg3571
I0
sg3572
I0
stp3588
Rp3589
(dp3590
g1028
g7
sbssI94
(dp3591
I0
g0
(g1015
g1016
(dp3592
g3566
g602
sg3567
I1
sg3568
I0
sg3569
I1
sg3570
I3
sg3571
I0
sg3572
I0
stp3593
Rp3594
(dp3595
g1028
g7
sbssI95
(dp3596
I0
g0
(g1015
g1016
(dp3597
g3566
g602
sg3567
I1
sg3568
I0
sg3569
I1
sg3570
I3
sg3571
I0
sg3572
I0
stp3598
Rp3599
(dp3600
g1028
g7
sbsssI108
(dp3601
I96
(dp3602
I0
g0
(g1015
g1016
(dp3603
S'loc'
p3604
g602
sS'noHXfreeze'
p3605
I1
sS'tempCold'
p3606
I0
sS'level'
p3607
I2
sS'trackfl'
p3608
I3
sS'tempHot'
p3609
I0
sS'tempGood'
p3610
I0
stp3611
Rp3612
(dp3613
g1028
g7
sbssI109
(dp3614
I0
g0
(g1015
g1016
(dp3615
g3604
g602
sg3605
I1
sg3606
I0
sg3607
I2
sg3608
I3
sg3609
I0
sg3610
I0
stp3616
Rp3617
(dp3618
g1028
g7
sbssI110
(dp3619
I0
g0
(g1015
g1016
(dp3620
g3604
g602
sg3605
I1
sg3606
I0
sg3607
I2
sg3608
I3
sg3609
I0
sg3610
I0
stp3621
Rp3622
(dp3623
g1028
g7
sbssI111
(dp3624
I0
g0
(g1015
g1016
(dp3625
g3604
g602
sg3605
I1
sg3606
I0
sg3607
I2
sg3608
I3
sg3609
I0
sg3610
I0
stp3626
Rp3627
(dp3628
g1028
g7
sbssI94
(dp3629
I0
g0
(g1015
g1016
(dp3630
g3604
g602
sg3605
I1
sg3606
I0
sg3607
I2
sg3608
I3
sg3609
I0
sg3610
I0
stp3631
Rp3632
(dp3633
g1028
g7
sbssI95
(dp3634
I0
g0
(g1015
g1016
(dp3635
g3604
g602
sg3605
I1
sg3606
I0
sg3607
I2
sg3608
I3
sg3609
I0
sg3610
I0
stp3636
Rp3637
(dp3638
g1028
g7
sbsssI109
(dp3639
I128
(dp3640
I0
g0
(g1015
g1016
(dp3641
S'loc'
p3642
g596
sS'noHXfreeze'
p3643
I0
sS'tempCold'
p3644
I0
sS'level'
p3645
I2
sS'trackfl'
p3646
I3
sS'tempHot'
p3647
I0
sS'tempGood'
p3648
I0
stp3649
Rp3650
(dp3651
g1028
g7
sbssI100
(dp3652
I0
g0
(g1015
g1016
(dp3653
g3642
g596
sg3643
I0
sg3644
I0
sg3645
I2
sg3646
I3
sg3647
I0
sg3648
I0
stp3654
Rp3655
(dp3656
g1028
g7
sbssI6
(dp3657
I0
g0
(g1015
g1016
(dp3658
g3642
g596
sg3643
I0
sg3644
I0
sg3645
I2
sg3646
I3
sg3647
I0
sg3648
I0
stp3659
Rp3660
(dp3661
g1028
g7
sbssI103
(dp3662
I0
g0
(g1015
g1016
(dp3663
g3642
g596
sg3643
I0
sg3644
I0
sg3645
I2
sg3646
I3
sg3647
I0
sg3648
I0
stp3664
Rp3665
(dp3666
g1028
g7
sbssI104
(dp3667
I0
g0
(g1015
g1016
(dp3668
g3642
g596
sg3643
I0
sg3644
I0
sg3645
I2
sg3646
I3
sg3647
I0
sg3648
I0
stp3669
Rp3670
(dp3671
g1028
g7
sbssI9
(dp3672
I0
g0
(g1015
g1016
(dp3673
g3642
g596
sg3643
I0
sg3644
I0
sg3645
I2
sg3646
I3
sg3647
I0
sg3648
I0
stp3674
Rp3675
(dp3676
g1028
g7
sbssI106
(dp3677
I0
g0
(g1015
g1016
(dp3678
g3642
g596
sg3643
I0
sg3644
I0
sg3645
I2
sg3646
I3
sg3647
I0
sg3648
I0
stp3679
Rp3680
(dp3681
g1028
g7
sbssI107
(dp3682
I0
g0
(g1015
g1016
(dp3683
g3642
g596
sg3643
I0
sg3644
I0
sg3645
I2
sg3646
I3
sg3647
I0
sg3648
I0
stp3684
Rp3685
(dp3686
g1028
g7
sbssI112
(dp3687
I0
g0
(g1015
g1016
(dp3688
g3642
g596
sg3643
I0
sg3644
I0
sg3645
I2
sg3646
I3
sg3647
I0
sg3648
I0
stp3689
Rp3690
(dp3691
g1028
g7
sbssI113
(dp3692
I0
g0
(g1015
g1016
(dp3693
g3642
g596
sg3643
I0
sg3644
I0
sg3645
I2
sg3646
I3
sg3647
I0
sg3648
I0
stp3694
Rp3695
(dp3696
g1028
g7
sbssI122
(dp3697
I0
g0
(g1015
g1016
(dp3698
g3642
g596
sg3643
I0
sg3644
I0
sg3645
I2
sg3646
I3
sg3647
I0
sg3648
I0
stp3699
Rp3700
(dp3701
g1028
g7
sbssI126
(dp3702
I0
g0
(g1015
g1016
(dp3703
g3642
g596
sg3643
I0
sg3644
I0
sg3645
I2
sg3646
I3
sg3647
I0
sg3648
I0
stp3704
Rp3705
(dp3706
g1028
g7
sbsssI110
(dp3707
I100
(dp3708
I0
g0
(g1015
g1016
(dp3709
S'loc'
p3710
g596
sS'noHXfreeze'
p3711
I0
sS'tempCold'
p3712
I0
sS'level'
p3713
I1
sS'trackfl'
p3714
I3
sS'tempHot'
p3715
I0
sS'tempGood'
p3716
I0
stp3717
Rp3718
(dp3719
g1028
g7
sbssI6
(dp3720
I0
g0
(g1015
g1016
(dp3721
g3710
g596
sg3711
I0
sg3712
I0
sg3713
I1
sg3714
I3
sg3715
I0
sg3716
I0
stp3722
Rp3723
(dp3724
g1028
g7
sbssI103
(dp3725
I0
g0
(g1015
g1016
(dp3726
g3710
g596
sg3711
I0
sg3712
I0
sg3713
I1
sg3714
I3
sg3715
I0
sg3716
I0
stp3727
Rp3728
(dp3729
g1028
g7
sbssI104
(dp3730
I0
g0
(g1015
g1016
(dp3731
g3710
g596
sg3711
I0
sg3712
I0
sg3713
I1
sg3714
I3
sg3715
I0
sg3716
I0
stp3732
Rp3733
(dp3734
g1028
g7
sbssI9
(dp3735
I0
g0
(g1015
g1016
(dp3736
g3710
g596
sg3711
I0
sg3712
I0
sg3713
I1
sg3714
I3
sg3715
I0
sg3716
I0
stp3737
Rp3738
(dp3739
g1028
g7
sbssI106
(dp3740
I0
g0
(g1015
g1016
(dp3741
g3710
g596
sg3711
I0
sg3712
I0
sg3713
I1
sg3714
I3
sg3715
I0
sg3716
I0
stp3742
Rp3743
(dp3744
g1028
g7
sbssI112
(dp3745
I0
g0
(g1015
g1016
(dp3746
g3710
g596
sg3711
I0
sg3712
I0
sg3713
I1
sg3714
I3
sg3715
I0
sg3716
I0
stp3747
Rp3748
(dp3749
g1028
g7
sbssI113
(dp3750
I0
g0
(g1015
g1016
(dp3751
g3710
g596
sg3711
I0
sg3712
I0
sg3713
I1
sg3714
I3
sg3715
I0
sg3716
I0
stp3752
Rp3753
(dp3754
g1028
g7
sbsssI111
(dp3755
I112
(dp3756
I0
g0
(g1015
g1016
(dp3757
S'loc'
p3758
g596
sS'noHXfreeze'
p3759
I0
sS'tempCold'
p3760
I0
sS'level'
p3761
I0
sS'trackfl'
p3762
I3
sS'tempHot'
p3763
I0
sS'tempGood'
p3764
I0
stp3765
Rp3766
(dp3767
g1028
g7
sbssI100
(dp3768
I0
g0
(g1015
g1016
(dp3769
g3758
g596
sg3759
I0
sg3760
I0
sg3761
I0
sg3762
I3
sg3763
I0
sg3764
I0
stp3770
Rp3771
(dp3772
g1028
g7
sbssI6
(dp3773
I0
g0
(g1015
g1016
(dp3774
g3758
g596
sg3759
I0
sg3760
I0
sg3761
I0
sg3762
I3
sg3763
I0
sg3764
I0
stp3775
Rp3776
(dp3777
g1028
g7
sbssI103
(dp3778
I0
g0
(g1015
g1016
(dp3779
g3758
g596
sg3759
I0
sg3760
I0
sg3761
I0
sg3762
I3
sg3763
I0
sg3764
I0
stp3780
Rp3781
(dp3782
g1028
g7
sbsssI112
(dp3783
I8
(dp3784
I0
g0
(g1015
g1016
(dp3785
S'loc'
p3786
g324
sS'noHXfreeze'
p3787
I0
sS'tempCold'
p3788
I0
sS'level'
p3789
I2
sS'trackfl'
p3790
I3
sS'tempHot'
p3791
I0
sS'tempGood'
p3792
I0
stp3793
Rp3794
(dp3795
g1028
g7
sbssI114
(dp3796
I0
g0
(g1015
g1016
(dp3797
g3786
g324
sg3787
I0
sg3788
I0
sg3789
I2
sg3790
I3
sg3791
I0
sg3792
I0
stp3798
Rp3799
(dp3800
g1028
g7
sbsssI113
(dp3801
I8
(dp3802
I0
g0
(g1015
g1016
(dp3803
S'loc'
p3804
g324
sS'noHXfreeze'
p3805
I0
sS'tempCold'
p3806
I0
sS'level'
p3807
I0
sS'trackfl'
p3808
I3
sS'tempHot'
p3809
I0
sS'tempGood'
p3810
I0
stp3811
Rp3812
(dp3813
g1028
g7
sbssI114
(dp3814
I0
g0
(g1015
g1016
(dp3815
g3804
g324
sg3805
I0
sg3806
I0
sg3807
I0
sg3808
I3
sg3809
I0
sg3810
I0
stp3816
Rp3817
(dp3818
g1028
g7
sbssI123
(dp3819
I0
g0
(g1015
g1016
(dp3820
g3804
g324
sg3805
I0
sg3806
I0
sg3807
I0
sg3808
I3
sg3809
I0
sg3810
I0
stp3821
Rp3822
(dp3823
g1028
g7
sbsssI114
(dp3824
I116
(dp3825
I0
g0
(g1015
g1016
(dp3826
S'loc'
p3827
g864
sS'noHXfreeze'
p3828
I0
sS'tempCold'
p3829
I0
sS'level'
p3830
I1
sS'trackfl'
p3831
I3
sS'tempHot'
p3832
I0
sS'tempGood'
p3833
I0
stp3834
Rp3835
(dp3836
g1028
g7
sbssI4
(dp3837
I0
g0
(g1015
g1016
(dp3838
g3827
g864
sg3828
I0
sg3829
I0
sg3830
I1
sg3831
I3
sg3832
I0
sg3833
I0
stp3839
Rp3840
(dp3841
g1028
g7
sbsssI115
(dp3842
I116
(dp3843
I0
g0
(g1015
g1016
(dp3844
S'loc'
p3845
g859
sS'noHXfreeze'
p3846
I0
sS'tempCold'
p3847
I1
sS'level'
p3848
I0
sS'trackfl'
p3849
I2
sS'tempHot'
p3850
I0
sS'tempGood'
p3851
I0
stp3852
Rp3853
(dp3854
g1028
g7
sbsssI116
(dp3855
I117
(dp3856
I0
g0
(g1015
g1016
(dp3857
S'loc'
p3858
g861
sS'noHXfreeze'
p3859
I0
sS'tempCold'
p3860
I1
sS'level'
p3861
I1
sS'trackfl'
p3862
I2
sS'tempHot'
p3863
I0
sS'tempGood'
p3864
I0
stp3865
Rp3866
(dp3867
g1028
g7
sbsssI117
(dp3868
I120
(dp3869
I0
g0
(g1015
g1016
(dp3870
S'loc'
p3871
g305
sS'noHXfreeze'
p3872
I1
sS'tempCold'
p3873
I1
sS'level'
p3874
I2
sS'trackfl'
p3875
I2
sS'tempHot'
p3876
I0
sS'tempGood'
p3877
I0
stp3878
Rp3879
(dp3880
g1028
g7
sbssI118
(dp3881
I0
g0
(g1015
g1016
(dp3882
g3871
g305
sg3872
I1
sg3873
I1
sg3874
I2
sg3875
I2
sg3876
I0
sg3877
I0
stp3883
Rp3884
(dp3885
g1028
g7
sbssI119
(dp3886
I0
g0
(g1015
g1016
(dp3887
g3871
g305
sg3872
I1
sg3873
I1
sg3874
I2
sg3875
I2
sg3876
I0
sg3877
I0
stp3888
Rp3889
(dp3890
g1028
g7
sbsssI118
(dp3891
I121
(dp3892
I0
g0
(g1015
g1016
(dp3893
S'loc'
p3894
g861
sS'noHXfreeze'
p3895
I0
sS'tempCold'
p3896
I1
sS'level'
p3897
I2
sS'trackfl'
p3898
I2
sS'tempHot'
p3899
I0
sS'tempGood'
p3900
I0
stp3901
Rp3902
(dp3903
g1028
g7
sbssI3
(dp3904
I0
g0
(g1015
g1016
(dp3905
g3894
g861
sg3895
I0
sg3896
I1
sg3897
I2
sg3898
I2
sg3899
I0
sg3900
I0
stp3906
Rp3907
(dp3908
g1028
g7
sbssI4
(dp3909
I0
g0
(g1015
g1016
(dp3910
g3894
g861
sg3895
I0
sg3896
I1
sg3897
I2
sg3898
I2
sg3899
I0
sg3900
I0
stp3911
Rp3912
(dp3913
g1028
g7
sbssI117
(dp3914
I0
g0
(g1015
g1016
(dp3915
g3894
g861
sg3895
I0
sg3896
I1
sg3897
I2
sg3898
I2
sg3899
I0
sg3900
I0
stp3916
Rp3917
(dp3918
g1028
g7
sbssI7
(dp3919
I0
g0
(g1015
g1016
(dp3920
g3894
g861
sg3895
I0
sg3896
I1
sg3897
I2
sg3898
I2
sg3899
I0
sg3900
I0
stp3921
Rp3922
(dp3923
g1028
g7
sbsssI119
(dp3924
I121
(dp3925
I0
g0
(g1015
g1016
(dp3926
S'loc'
p3927
g861
sS'noHXfreeze'
p3928
I0
sS'tempCold'
p3929
I1
sS'level'
p3930
I1
sS'trackfl'
p3931
I2
sS'tempHot'
p3932
I0
sS'tempGood'
p3933
I0
stp3934
Rp3935
(dp3936
g1028
g7
sbssI3
(dp3937
I0
g0
(g1015
g1016
(dp3938
g3927
g861
sg3928
I0
sg3929
I1
sg3930
I1
sg3931
I2
sg3932
I0
sg3933
I0
stp3939
Rp3940
(dp3941
g1028
g7
sbssI7
(dp3942
I0
g0
(g1015
g1016
(dp3943
g3927
g861
sg3928
I0
sg3929
I1
sg3930
I1
sg3931
I2
sg3932
I0
sg3933
I0
stp3944
Rp3945
(dp3946
g1028
g7
sbsssI120
(dp3947
I121
(dp3948
I0
g0
(g1015
g1016
(dp3949
S'loc'
p3950
g861
sS'noHXfreeze'
p3951
I0
sS'tempCold'
p3952
I1
sS'level'
p3953
I0
sS'trackfl'
p3954
I2
sS'tempHot'
p3955
I0
sS'tempGood'
p3956
I0
stp3957
Rp3958
(dp3959
g1028
g7
sbssI7
(dp3960
I0
g0
(g1015
g1016
(dp3961
g3950
g861
sg3951
I0
sg3952
I1
sg3953
I0
sg3954
I2
sg3955
I0
sg3956
I0
stp3962
Rp3963
(dp3964
g1028
g7
sbsssI121
(dp3965
I123
(dp3966
I0
g0
(g1015
g1016
(dp3967
S'loc'
p3968
g859
sS'noHXfreeze'
p3969
I0
sS'tempCold'
p3970
I1
sS'level'
p3971
I2
sS'trackfl'
p3972
I2
sS'tempHot'
p3973
I0
sS'tempGood'
p3974
I0
stp3975
Rp3976
(dp3977
g1028
g7
sbssI115
(dp3978
I0
g0
(g1015
g1016
(dp3979
g3968
g859
sg3969
I0
sg3970
I1
sg3971
I2
sg3972
I2
sg3973
I0
sg3974
I0
stp3980
Rp3981
(dp3982
g1028
g7
sbssI116
(dp3983
I0
g0
(g1015
g1016
(dp3984
g3968
g859
sg3969
I0
sg3970
I1
sg3971
I2
sg3972
I2
sg3973
I0
sg3974
I0
stp3985
Rp3986
(dp3987
g1028
g7
sbssI5
(dp3988
I0
g0
(g1015
g1016
(dp3989
g3968
g859
sg3969
I0
sg3970
I1
sg3971
I2
sg3972
I2
sg3973
I0
sg3974
I0
stp3990
Rp3991
(dp3992
g1028
g7
sbsssI122
(dp3993
I114
(dp3994
I0
g0
(g1015
g1016
(dp3995
S'loc'
p3996
g324
sS'noHXfreeze'
p3997
I0
sS'tempCold'
p3998
I0
sS'level'
p3999
I1
sS'trackfl'
p4000
I3
sS'tempHot'
p4001
I0
sS'tempGood'
p4002
I0
stp4003
Rp4004
(dp4005
g1028
g7
sbssI123
(dp4006
I0
g0
(g1015
g1016
(dp4007
g3996
g324
sg3997
I0
sg3998
I0
sg3999
I1
sg4000
I3
sg4001
I0
sg4002
I0
stp4008
Rp4009
(dp4010
g1028
g7
sbsssI123
(dp4011
I124
(dp4012
I0
g0
(g1015
g1016
(dp4013
S'loc'
p4014
g864
sS'noHXfreeze'
p4015
I0
sS'tempCold'
p4016
I0
sS'level'
p4017
I2
sS'trackfl'
p4018
I3
sS'tempHot'
p4019
I0
sS'tempGood'
p4020
I0
stp4021
Rp4022
(dp4023
g1028
g7
sbsssI124
(dp4024
I125
(dp4025
I0
g0
(g1015
g1016
(dp4026
S'loc'
p4027
g324
sS'noHXfreeze'
p4028
I0
sS'tempCold'
p4029
I0
sS'level'
p4030
I2
sS'trackfl'
p4031
I3
sS'tempHot'
p4032
I0
sS'tempGood'
p4033
I0
stp4034
Rp4035
(dp4036
g1028
g7
sbsssI125
(dp4037
I108
(dp4038
I0
g0
(g1015
g1016
(dp4039
S'loc'
p4040
g596
sS'noHXfreeze'
p4041
I0
sS'tempCold'
p4042
I0
sS'level'
p4043
I2
sS'trackfl'
p4044
I3
sS'tempHot'
p4045
I0
sS'tempGood'
p4046
I0
stp4047
Rp4048
(dp4049
g1028
g7
sbssI127
(dp4050
I0
g0
(g1015
g1016
(dp4051
g4040
g596
sg4041
I0
sg4042
I0
sg4043
I2
sg4044
I3
sg4045
I0
sg4046
I0
stp4052
Rp4053
(dp4054
g1028
g7
sbsssI126
(dp4055
I124
(dp4056
I0
g0
(g1015
g1016
(dp4057
S'loc'
p4058
g596
sS'noHXfreeze'
p4059
I0
sS'tempCold'
p4060
I0
sS'level'
p4061
I1
sS'trackfl'
p4062
I3
sS'tempHot'
p4063
I0
sS'tempGood'
p4064
I0
stp4065
Rp4066
(dp4067
g1028
g7
sbssI122
(dp4068
I0
g0
(g1015
g1016
(dp4069
g4058
g596
sg4059
I0
sg4060
I0
sg4061
I1
sg4062
I3
sg4063
I0
sg4064
I0
stp4070
Rp4071
(dp4072
g1028
g7
sbssI108
(dp4073
I0
g0
(g1015
g1016
(dp4074
g4058
g596
sg4059
I0
sg4060
I0
sg4061
I1
sg4062
I3
sg4063
I0
sg4064
I0
stp4075
Rp4076
(dp4077
g1028
g7
sbssI125
(dp4078
I0
g0
(g1015
g1016
(dp4079
g4058
g596
sg4059
I0
sg4060
I0
sg4061
I1
sg4062
I3
sg4063
I0
sg4064
I0
stp4080
Rp4081
(dp4082
g1028
g7
sbssI127
(dp4083
I0
g0
(g1015
g1016
(dp4084
g4058
g596
sg4059
I0
sg4060
I0
sg4061
I1
sg4062
I3
sg4063
I0
sg4064
I0
stp4085
Rp4086
(dp4087
g1028
g7
sbsssI127
(dp4088
I129
(dp4089
I0
g0
(g1015
g1016
(dp4090
S'loc'
p4091
g595
sS'noHXfreeze'
p4092
I0
sS'tempCold'
p4093
I0
sS'level'
p4094
I2
sS'trackfl'
p4095
I3
sS'tempHot'
p4096
I0
sS'tempGood'
p4097
I0
stp4098
Rp4099
(dp4100
g1028
g7
sbsssI128
(dp4101
I129
(dp4102
I0
g0
(g1015
g1016
(dp4103
S'loc'
p4104
g595
sS'noHXfreeze'
p4105
I0
sS'tempCold'
p4106
I0
sS'level'
p4107
I1
sS'trackfl'
p4108
I3
sS'tempHot'
p4109
I0
sS'tempGood'
p4110
I0
stp4111
Rp4112
(dp4113
g1028
g7
sbssI126
(dp4114
I0
g0
(g1015
g1016
(dp4115
g4104
g595
sg4105
I0
sg4106
I0
sg4107
I1
sg4108
I3
sg4109
I0
sg4110
I0
stp4116
Rp4117
(dp4118
g1028
g7
sbsssI129
(dp4119
I131
(dp4120
I0
g0
(g1015
g1016
(dp4121
S'loc'
p4122
g606
sS'noHXfreeze'
p4123
I0
sS'tempCold'
p4124
I0
sS'level'
p4125
I2
sS'trackfl'
p4126
I3
sS'tempHot'
p4127
I0
sS'tempGood'
p4128
I0
stp4129
Rp4130
(dp4131
g1028
g7
sbsssI130
(dp4132
I105
(dp4133
I0
g0
(g1015
g1016
(dp4134
S'loc'
p4135
g605
sS'noHXfreeze'
p4136
I0
sS'tempCold'
p4137
I0
sS'level'
p4138
I1
sS'trackfl'
p4139
I3
sS'tempHot'
p4140
I0
sS'tempGood'
p4141
I0
stp4142
Rp4143
(dp4144
g1028
g7
sbssI131
(dp4145
I0
g0
(g1015
g1016
(dp4146
g4135
g605
sg4136
I0
sg4137
I0
sg4138
I1
sg4139
I3
sg4140
I0
sg4141
I0
stp4147
Rp4148
(dp4149
g1028
g7
sbsssI131
(dp4150
I132
(dp4151
I0
g0
(g1015
g1016
(dp4152
S'loc'
p4153
g605
sS'noHXfreeze'
p4154
I0
sS'tempCold'
p4155
I0
sS'level'
p4156
I2
sS'trackfl'
p4157
I3
sS'tempHot'
p4158
I0
sS'tempGood'
p4159
I0
stp4160
Rp4161
(dp4162
g1028
g7
sbssI85
(dp4163
I0
g0
(g1015
g1016
(dp4164
g4153
g605
sg4154
I0
sg4155
I0
sg4156
I2
sg4157
I3
sg4158
I0
sg4159
I0
stp4165
Rp4166
(dp4167
g1028
g7
sbsssI132
(dp4168
I11
(dp4169
I0
g0
(g1015
g1016
(dp4170
S'loc'
p4171
g770
sS'noHXfreeze'
p4172
I0
sS'tempCold'
p4173
I0
sS'level'
p4174
I2
sS'trackfl'
p4175
I1
sS'tempHot'
p4176
I0
sS'tempGood'
p4177
I1
stp4178
Rp4179
(dp4180
g1028
g7
sbssI133
(dp4181
I0
g0
(g1015
g1016
(dp4182
g4171
g770
sg4172
I0
sg4173
I0
sg4174
I2
sg4175
I1
sg4176
I0
sg4177
I1
stp4183
Rp4184
(dp4185
g1028
g7
sbsssI133
(dp4186
I134
(dp4187
I0
g0
(g1015
g1016
(dp4188
S'loc'
p4189
g765
sS'noHXfreeze'
p4190
I0
sS'tempCold'
p4191
I0
sS'level'
p4192
I2
sS'trackfl'
p4193
I1
sS'tempHot'
p4194
I0
sS'tempGood'
p4195
I1
stp4196
Rp4197
(dp4198
g1028
g7
sbsssI134
(dp4199
I135
(dp4200
I0
g0
(g1015
g1016
(dp4201
S'loc'
p4202
g77
sS'noHXfreeze'
p4203
I0
sS'tempCold'
p4204
I0
sS'level'
p4205
I2
sS'trackfl'
p4206
I1
sS'tempHot'
p4207
I0
sS'tempGood'
p4208
I1
stp4209
Rp4210
(dp4211
g1028
g7
sbsssI135
(dp4212
I136
(dp4213
I0
g0
(g1015
g1016
(dp4214
S'loc'
p4215
g74
sS'noHXfreeze'
p4216
I0
sS'tempCold'
p4217
I0
sS'level'
p4218
I2
sS'trackfl'
p4219
I1
sS'tempHot'
p4220
I0
sS'tempGood'
p4221
I1
stp4222
Rp4223
(dp4224
g1028
g7
sbssI77
(dp4225
I0
g0
(g1015
g1016
(dp4226
g4215
g74
sg4216
I0
sg4217
I0
sg4218
I2
sg4219
I1
sg4220
I0
sg4221
I1
stp4227
Rp4228
(dp4229
g1028
g7
sbsssI136
(dp4230
I137
(dp4231
I0
g0
(g1015
g1016
(dp4232
S'loc'
p4233
g71
sS'noHXfreeze'
p4234
I0
sS'tempCold'
p4235
I0
sS'level'
p4236
I2
sS'trackfl'
p4237
I1
sS'tempHot'
p4238
I0
sS'tempGood'
p4239
I1
stp4240
Rp4241
(dp4242
g1028
g7
sbssI78
(dp4243
I0
g0
(g1015
g1016
(dp4244
g4233
g71
sg4234
I0
sg4235
I0
sg4236
I2
sg4237
I1
sg4238
I0
sg4239
I1
stp4245
Rp4246
(dp4247
g1028
g7
sbsssI137
(dp4248
I138
(dp4249
I0
g0
(g1015
g1016
(dp4250
S'loc'
p4251
g68
sS'noHXfreeze'
p4252
I0
sS'tempCold'
p4253
I0
sS'level'
p4254
I2
sS'trackfl'
p4255
I1
sS'tempHot'
p4256
I0
sS'tempGood'
p4257
I1
stp4258
Rp4259
(dp4260
g1028
g7
sbssI142
(dp4261
I0
g0
(g1015
g1016
(dp4262
g4251
g68
sg4252
I0
sg4253
I0
sg4254
I2
sg4255
I1
sg4256
I0
sg4257
I1
stp4263
Rp4264
(dp4265
g1028
g7
sbsssI138
(dp4266
I140
(dp4267
I0
g0
(g1015
g1016
(dp4268
S'loc'
p4269
g369
sS'noHXfreeze'
p4270
I0
sS'tempCold'
p4271
I0
sS'level'
p4272
I2
sS'trackfl'
p4273
I1
sS'tempHot'
p4274
I0
sS'tempGood'
p4275
I1
stp4276
Rp4277
(dp4278
g1028
g7
sbssI60
(dp4279
I0
g0
(g1015
g1016
(dp4280
g4269
g369
sg4270
I0
sg4271
I0
sg4272
I2
sg4273
I1
sg4274
I0
sg4275
I1
stp4281
Rp4282
(dp4283
g1028
g7
sbsssI139
(dp4284
I0
(dp4285
I0
g0
(g1015
g1016
(dp4286
S'loc'
p4287
g374
sS'noHXfreeze'
p4288
I0
sS'tempCold'
p4289
I0
sS'level'
p4290
I1
sS'trackfl'
p4291
I1
sS'tempHot'
p4292
I0
sS'tempGood'
p4293
I1
stp4294
Rp4295
(dp4296
g1028
g7
sbssI71
(dp4297
I0
g0
(g1015
g1016
(dp4298
g4287
g374
sg4288
I0
sg4289
I0
sg4290
I1
sg4291
I1
sg4292
I0
sg4293
I1
stp4299
Rp4300
(dp4301
g1028
g7
sbssI72
(dp4302
I0
g0
(g1015
g1016
(dp4303
g4287
g374
sg4288
I0
sg4289
I0
sg4290
I1
sg4291
I1
sg4292
I0
sg4293
I1
stp4304
Rp4305
(dp4306
g1028
g7
sbssI141
(dp4307
I0
g0
(g1015
g1016
(dp4308
g4287
g374
sg4288
I0
sg4289
I0
sg4290
I1
sg4291
I1
sg4292
I0
sg4293
I1
stp4309
Rp4310
(dp4311
g1028
g7
sbssI142
(dp4312
I0
g0
(g1015
g1016
(dp4313
g4287
g374
sg4288
I0
sg4289
I0
sg4290
I1
sg4291
I1
sg4292
I0
sg4293
I1
stp4314
Rp4315
(dp4316
g1028
g7
sbssg1068
(dp4317
I0
g0
(g1015
g1016
(dp4318
g4287
g374
sg4288
I0
sg4289
I0
sg4290
I1
sg4291
I1
sg4292
I0
sg4293
I1
stp4319
Rp4320
(dp4321
g1028
g7
sbsssI140
(dp4322
I141
(dp4323
I0
g0
(g1015
g1016
(dp4324
S'loc'
p4325
g374
sS'noHXfreeze'
p4326
I0
sS'tempCold'
p4327
I0
sS'level'
p4328
I2
sS'trackfl'
p4329
I1
sS'tempHot'
p4330
I0
sS'tempGood'
p4331
I1
stp4332
Rp4333
(dp4334
g1028
g7
sbsssI141
(dp4335
g1068
(dp4336
I0
g0
(g1015
g1016
(dp4337
S'loc'
p4338
g370
sS'noHXfreeze'
p4339
I1
sS'tempCold'
p4340
I0
sS'level'
p4341
I1
sS'trackfl'
p4342
I1
sS'tempHot'
p4343
I0
sS'tempGood'
p4344
I1
stp4345
Rp4346
(dp4347
g1028
g7
sbssI139
(dp4348
I0
g0
(g1015
g1016
(dp4349
g4338
g370
sg4339
I1
sg4340
I0
sg4341
I1
sg4342
I1
sg4343
I0
sg4344
I1
stp4350
Rp4351
(dp4352
g1028
g7
sbssI69
(dp4353
I0
g0
(g1015
g1016
(dp4354
g4338
g370
sg4339
I1
sg4340
I0
sg4341
I1
sg4342
I1
sg4343
I0
sg4344
I1
stp4355
Rp4356
(dp4357
g1028
g7
sbssI70
(dp4358
I0
g0
(g1015
g1016
(dp4359
g4338
g370
sg4339
I1
sg4340
I0
sg4341
I1
sg4342
I1
sg4343
I0
sg4344
I1
stp4360
Rp4361
(dp4362
g1028
g7
sbssI143
(dp4363
I0
g0
(g1015
g1016
(dp4364
g4338
g370
sg4339
I1
sg4340
I0
sg4341
I1
sg4342
I1
sg4343
I0
sg4344
I1
stp4365
Rp4366
(dp4367
g1028
g7
sbsssI142
(dp4368
I139
(dp4369
I0
g0
(g1015
g1016
(dp4370
S'loc'
p4371
g370
sS'noHXfreeze'
p4372
I1
sS'tempCold'
p4373
I0
sS'level'
p4374
I2
sS'trackfl'
p4375
I1
sS'tempHot'
p4376
I0
sS'tempGood'
p4377
I1
stp4378
Rp4379
(dp4380
g1028
g7
sbssI69
(dp4381
I0
g0
(g1015
g1016
(dp4382
g4371
g370
sg4372
I1
sg4373
I0
sg4374
I2
sg4375
I1
sg4376
I0
sg4377
I1
stp4383
Rp4384
(dp4385
g1028
g7
sbssI70
(dp4386
I0
g0
(g1015
g1016
(dp4387
g4371
g370
sg4372
I1
sg4373
I0
sg4374
I2
sg4375
I1
sg4376
I0
sg4377
I1
stp4388
Rp4389
(dp4390
g1028
g7
sbssI143
(dp4391
I0
g0
(g1015
g1016
(dp4392
g4371
g370
sg4372
I1
sg4373
I0
sg4374
I2
sg4375
I1
sg4376
I0
sg4377
I1
stp4393
Rp4394
(dp4395
g1028
g7
sbsssI143
(dp4396
g1068
(dp4397
I0
g0
(g1015
g1016
(dp4398
S'loc'
p4399
g68
sS'noHXfreeze'
p4400
I0
sS'tempCold'
p4401
I0
sS'level'
p4402
I1
sS'trackfl'
p4403
I1
sS'tempHot'
p4404
I0
sS'tempGood'
p4405
I1
stp4406
Rp4407
(dp4408
g1028
g7
sbsssg1068
(dp4409
ssS'_state_dot_label_format'
p4410
(dp4411
S'separator'
p4412
S'\n'
p4413
sS'type?label'
p4414
S':'
p4415
ssS'_transition_dot_label_format'
p4416
(dp4417
g8
S'/loc'
p4418
sg973
S'/noHXfreeze'
p4419
sg4414
g4415
sg977
g977
sg981
S'/tempCold'
p4420
sg985
S'/tempGood'
p4421
sg989
S'/trackfl'
p4422
sg4412
g4413
sg993
S'/tempHot'
p4423
ssS'adj'
p4424
(dp4425
I0
(dp4426
I1
g1045
sI139
g4285
sI69
g2585
ssI1
(dp4427
I72
g2654
sI68
g2567
sI71
g2626
ssI2
(dp4428
I88
g3082
sI89
g3110
sI90
g3153
ssI3
(dp4429
I8
g1194
sI118
g3904
sI119
g3937
ssI4
(dp4430
I114
g3837
sI5
g1133
sI118
g3909
ssI5
(dp4431
I8
g1199
sI121
g3988
sI7
g1176
ssI6
(dp4432
I109
g3657
sI110
g3720
sI111
g3773
ssI7
(dp4433
I120
g3960
sI118
g3919
sI119
g3942
ssI8
(dp4434
I112
g3784
sI113
g3802
sI6
g1151
ssI9
(dp4435
I102
g3446
sI110
g3735
sI109
g3672
ssI10
(dp4436
I88
g3104
sI89
g3127
sI83
g2977
ssI11
(dp4437
I92
g3236
sI132
g4169
sI93
g3289
ssI12
(dp4438
I48
g2069
sI52
g2161
sI54
g2227
ssI13
(dp4439
I43
g1899
sI44
g1947
sI29
g1650
ssI14
(dp4440
I41
g1853
sI43
g1904
sI45
g1990
ssI15
(dp4441
I18
g1414
sI26
g1556
sI23
g1504
ssI16
(dp4442
I41
g1858
sI43
g1914
sI45
g2000
ssI17
(dp4443
I16
g1366
sI26
g1568
sI28
g1617
ssI18
(dp4444
I24
g1510
sI25
g1533
sI15
g1343
ssI19
(dp4445
I18
g1409
sI27
g1594
sI26
g1573
ssI20
(dp4446
I40
g1825
sI41
g1863
sI45
g2005
ssI21
(dp4447
I28
g1634
sI20
g1433
sI23
g1494
ssI22
(dp4448
I28
g1639
sI21
g1446
sI23
g1499
ssI23
(dp4449
I17
g1379
sI26
g1578
sI28
g1644
ssI24
(dp4450
I18
g1392
sI22
g1459
sI23
g1477
ssI25
(dp4451
I18
g1404
sI22
g1471
sI23
g1489
ssI26
(dp4452
I24
g1527
sI25
g1550
sI15
g1360
ssI27
(dp4453
I24
g1522
sI25
g1545
sI15
g1355
ssI28
(dp4454
I19
g1420
sI26
g1583
sI27
g1606
ssI29
(dp4455
I26
g1588
sI27
g1611
sI28
g1629
ssI30
(dp4456
I43
g1924
sI44
g1952
sI29
g1662
ssI31
(dp4457
I43
g1929
sI45
g2010
sI37
g1776
ssI32
(dp4458
I50
g2088
sI51
g2116
sI12
g1279
ssI33
(dp4459
I32
g1694
sI48
g2054
sI52
g2149
ssI34
(dp4460
I57
g2296
sI62
g2386
sI63
g2409
ssI35
(dp4461
I65
g2465
sI67
g2529
sI59
g2327
ssI36
(dp4462
I35
g1738
sI53
g2194
sI54
g2205
ssI37
(dp4463
I33
g1719
sI52
g2166
sI54
g2217
ssI38
(dp4464
I36
g1751
sI37
g1764
sI54
g2222
ssI39
(dp4465
I41
g1831
sI45
g1963
sI38
g1794
ssI40
(dp4466
I41
g1843
sI45
g1975
sI39
g1800
ssI41
(dp4467
I43
g1887
sI45
g1980
sI31
g1681
ssI42
(dp4468
I40
g1813
sI41
g1848
sI45
g1985
ssI43
(dp4469
I42
g1869
sI13
g1307
sI14
g1325
ssI44
(dp4470
I42
g1881
sI13
g1319
sI14
g1337
ssI45
(dp4471
I43
g1909
sI44
g1957
sI30
g1668
ssI46
(dp4472
I50
g2110
sI51
g2138
sI12
g1301
ssI47
(dp4473
I43
g1919
sI44
g1935
sI45
g1995
ssI48
(dp4474
I50
g2100
sI51
g2128
sI12
g1291
ssI49
(dp4475
I65
g2475
sI67
g2546
sI59
g2315
ssI50
(dp4476
I48
g2059
sI49
g2075
sI54
g2232
ssI51
(dp4477
I48
g2064
sI54
g2237
sI38
g1782
ssI52
(dp4478
I50
g2105
sI51
g2133
sI12
g1296
ssI53
(dp4479
I64
g2447
sI65
g2485
sI34
g1725
ssI54
(dp4480
I52
g2171
sI46
g2016
sI47
g2029
ssI55
(dp4481
I52
g2176
sI53
g2199
sI54
g2242
ssI56
(dp4482
I64
g2420
sI65
g2490
sI55
g2248
ssI57
(dp4483
I56
g2266
sI65
g2495
sI64
g2432
ssI58
(dp4484
I72
g2696
sI73
g2734
sI60
g2338
ssI59
(dp4485
I65
g2500
sI58
g2302
sI67
g2551
ssI60
(dp4486
I72
g2701
sI73
g2739
sI138
g4279
ssI61
(dp4487
I72
g2706
sI73
g2744
sI60
g2350
ssI62
(dp4488
I65
g2505
sI67
g2556
sI61
g2356
ssI63
(dp4489
I65
g2510
sI67
g2561
sI59
g2332
ssI64
(dp4490
I57
g2279
sI62
g2369
sI63
g2392
ssI65
(dp4491
I57
g2291
sI62
g2381
sI63
g2404
ssI66
(dp4492
I64
g2437
sI65
g2453
sI55
g2260
ssI67
(dp4493
I64
g2442
sI65
g2480
sI66
g2516
ssI68
(dp4494
I72
g2666
sI67
g2541
sI71
g2643
ssI69
(dp4495
I0
g1029
sI141
g4353
sI142
g4381
ssI70
(dp4496
I0
g1034
sI141
g4358
sI142
g4386
ssI71
(dp4497
I139
g4297
sI69
g2602
sI70
g2620
ssI72
(dp4498
I139
g4302
sI69
g2597
sI70
g2608
ssI73
(dp4499
I72
g2676
sI68
g2579
sI71
g2648
ssI74
(dp4500
I72
g2681
sI73
g2712
sI71
g2638
ssI75
(dp4501
I80
g2890
sI74
g2750
sI79
g2857
ssI76
(dp4502
I80
g2895
sI75
g2775
sI79
g2862
ssI77
(dp4503
I80
g2900
sI81
g2948
sI135
g4225
ssI78
(dp4504
I80
g2905
sI81
g2953
sI136
g4243
ssI79
(dp4505
I76
g2793
sI77
g2811
sI78
g2834
ssI80
(dp4506
I76
g2781
sI77
g2799
sI78
g2817
ssI81
(dp4507
I80
g2910
sI75
g2763
sI79
g2840
ssI82
(dp4508
I80
g2915
sI81
g2958
sI79
g2852
ssI83
(dp4509
I82
g2964
sI91
g3188
sI92
g3241
ssI84
(dp4510
I83
g2989
sI91
g3193
sI92
g3246
ssI85
(dp4511
I131
g4163
sI92
g3251
sI93
g3294
ssI86
(dp4512
I89
g3132
sI84
g3000
sI85
g3018
ssI87
(dp4513
I89
g3137
sI11
g1266
sI84
g3012
ssI88
(dp4514
I10
g1243
sI86
g3031
sI87
g3054
ssI89
(dp4515
I10
g1255
sI86
g3043
sI87
g3066
ssI90
(dp4516
I10
g1260
sI86
g3048
sI87
g3071
ssI91
(dp4517
I88
g3094
sI89
g3142
sI90
g3165
ssI92
(dp4518
I88
g3099
sI89
g3147
sI90
g3170
ssI93
(dp4519
I83
g2994
sI91
g3198
sI92
g3256
ssI94
(dp4520
I9
g1232
sI107
g3591
sI108
g3629
ssI95
(dp4521
I9
g1237
sI107
g3596
sI108
g3634
ssI96
(dp4522
I9
g1205
sI107
g3564
sI108
g3602
ssI97
(dp4523
I96
g3336
sI94
g3300
sI95
g3318
ssI98
(dp4524
I96
g3348
sI94
g3312
sI95
g3330
ssI99
(dp4525
I91
g3176
sI92
g3204
sI93
g3262
ssI100
(dp4526
I109
g3652
sI110
g3708
sI111
g3768
ssI101
(dp4527
I97
g3366
sI98
g3372
sI99
g3385
ssI102
(dp4528
I100
g3398
sI101
g3428
sI103
g3464
ssI103
(dp4529
I109
g3662
sI110
g3725
sI111
g3778
ssI104
(dp4530
I102
g3434
sI110
g3730
sI109
g3667
ssI105
(dp4531
I104
g3470
sI130
g4133
sI103
g3452
ssI106
(dp4532
I104
g3482
sI109
g3677
sI110
g3740
ssI107
(dp4533
I105
g3505
sI106
g3523
sI109
g3682
ssI108
(dp4534
I106
g3528
sI125
g4038
sI126
g4073
ssI109
(dp4535
I9
g1217
sI107
g3576
sI108
g3614
ssI110
(dp4536
I9
g1222
sI107
g3581
sI108
g3619
ssI111
(dp4537
I9
g1227
sI107
g3586
sI108
g3624
ssI112
(dp4538
I109
g3687
sI110
g3745
sI111
g3756
ssI113
(dp4539
I106
g3533
sI109
g3692
sI110
g3750
ssI114
(dp4540
I112
g3796
sI113
g3814
sI122
g3994
ssI115
(dp4541
I8
g1182
sI121
g3978
sI7
g1164
ssI116
(dp4542
I121
g3983
sI114
g3825
sI115
g3843
ssI117
(dp4543
I116
g3856
sI5
g1145
sI118
g3914
ssI118
(dp4544
I3
g1099
sI4
g1122
sI117
g3881
ssI119
(dp4545
I3
g1104
sI4
g1127
sI117
g3886
ssI120
(dp4546
I3
g1087
sI4
g1110
sI117
g3869
ssI121
(dp4547
I120
g3948
sI118
g3892
sI119
g3925
ssI122
(dp4548
I106
g3538
sI109
g3697
sI126
g4068
ssI123
(dp4549
I113
g3819
sI122
g4006
sI121
g3966
ssI124
(dp4550
I106
g3543
sI123
g4012
sI126
g4056
ssI125
(dp4551
I106
g3548
sI124
g4025
sI126
g4078
ssI126
(dp4552
I128
g4114
sI106
g3553
sI109
g3702
ssI127
(dp4553
I106
g3558
sI125
g4050
sI126
g4083
ssI128
(dp4554
I105
g3493
sI106
g3511
sI109
g3640
ssI129
(dp4555
I104
g3487
sI128
g4102
sI127
g4089
ssI130
(dp4556
I97
g3354
sI2
g1081
sI101
g3411
ssI131
(dp4557
I129
g4120
sI130
g4145
sI101
g3423
ssI132
(dp4558
I131
g4151
sI92
g3216
sI93
g3274
ssI133
(dp4559
I92
g3221
sI132
g4181
sI93
g3279
ssI134
(dp4560
I92
g3226
sI93
g3284
sI133
g4187
ssI135
(dp4561
I80
g2868
sI81
g2926
sI134
g4200
ssI136
(dp4562
I80
g2880
sI81
g2938
sI135
g4213
ssI137
(dp4563
I80
g2885
sI81
g2943
sI136
g4231
ssI138
(dp4564
I72
g2691
sI73
g2729
sI137
g4249
ssI139
(dp4565
I0
g1014
sI141
g4348
sI142
g4369
ssI140
(dp4566
I72
g2686
sI73
g2724
sI138
g4267
ssI141
(dp4567
I1
g1057
sI139
g4307
sI140
g4323
ssI142
(dp4568
I1
g1062
sI139
g4312
sI137
g4261
ssI143
(dp4569
I0
g1039
sI141
g4363
sI142
g4391
ssg1068
(dp4570
I33
g1707
sI2
g1069
sI65
g2470
sI72
g2671
sI80
g2920
sI139
g4317
sI141
g4336
sI78
g2829
sI143
g4397
sI48
g2042
sI51
g2143
sI53
g2182
sI87
g3076
sI89
g3122
sI92
g3231
sI63
g2414
sssS'default_layout'
p4571
S'dot'
p4572
sS'node'
p4573
(dp4574
I0
g0
(g1015
g1016
(dp4575
tp4576
Rp4577
(dp4578
g1028
g1000
sbsI1
g0
(g1015
g1016
(dp4579
tp4580
Rp4581
(dp4582
g1028
g1000
sbsI2
g0
(g1015
g1016
(dp4583
tp4584
Rp4585
(dp4586
g1028
g1000
sbsI3
g0
(g1015
g1016
(dp4587
tp4588
Rp4589
(dp4590
g1028
g1000
sbsI4
g0
(g1015
g1016
(dp4591
tp4592
Rp4593
(dp4594
g1028
g1000
sbsI5
g0
(g1015
g1016
(dp4595
tp4596
Rp4597
(dp4598
g1028
g1000
sbsI6
g0
(g1015
g1016
(dp4599
tp4600
Rp4601
(dp4602
g1028
g1000
sbsI7
g0
(g1015
g1016
(dp4603
tp4604
Rp4605
(dp4606
g1028
g1000
sbsI8
g0
(g1015
g1016
(dp4607
tp4608
Rp4609
(dp4610
g1028
g1000
sbsI9
g0
(g1015
g1016
(dp4611
tp4612
Rp4613
(dp4614
g1028
g1000
sbsI10
g0
(g1015
g1016
(dp4615
tp4616
Rp4617
(dp4618
g1028
g1000
sbsI11
g0
(g1015
g1016
(dp4619
tp4620
Rp4621
(dp4622
g1028
g1000
sbsI12
g0
(g1015
g1016
(dp4623
tp4624
Rp4625
(dp4626
g1028
g1000
sbsI13
g0
(g1015
g1016
(dp4627
tp4628
Rp4629
(dp4630
g1028
g1000
sbsI14
g0
(g1015
g1016
(dp4631
tp4632
Rp4633
(dp4634
g1028
g1000
sbsI15
g0
(g1015
g1016
(dp4635
tp4636
Rp4637
(dp4638
g1028
g1000
sbsI16
g0
(g1015
g1016
(dp4639
tp4640
Rp4641
(dp4642
g1028
g1000
sbsI17
g0
(g1015
g1016
(dp4643
tp4644
Rp4645
(dp4646
g1028
g1000
sbsI18
g0
(g1015
g1016
(dp4647
tp4648
Rp4649
(dp4650
g1028
g1000
sbsI19
g0
(g1015
g1016
(dp4651
tp4652
Rp4653
(dp4654
g1028
g1000
sbsI20
g0
(g1015
g1016
(dp4655
tp4656
Rp4657
(dp4658
g1028
g1000
sbsI21
g0
(g1015
g1016
(dp4659
tp4660
Rp4661
(dp4662
g1028
g1000
sbsI22
g0
(g1015
g1016
(dp4663
tp4664
Rp4665
(dp4666
g1028
g1000
sbsI23
g0
(g1015
g1016
(dp4667
tp4668
Rp4669
(dp4670
g1028
g1000
sbsI24
g0
(g1015
g1016
(dp4671
tp4672
Rp4673
(dp4674
g1028
g1000
sbsI25
g0
(g1015
g1016
(dp4675
tp4676
Rp4677
(dp4678
g1028
g1000
sbsI26
g0
(g1015
g1016
(dp4679
tp4680
Rp4681
(dp4682
g1028
g1000
sbsI27
g0
(g1015
g1016
(dp4683
tp4684
Rp4685
(dp4686
g1028
g1000
sbsI28
g0
(g1015
g1016
(dp4687
tp4688
Rp4689
(dp4690
g1028
g1000
sbsI29
g0
(g1015
g1016
(dp4691
tp4692
Rp4693
(dp4694
g1028
g1000
sbsI30
g0
(g1015
g1016
(dp4695
tp4696
Rp4697
(dp4698
g1028
g1000
sbsI31
g0
(g1015
g1016
(dp4699
tp4700
Rp4701
(dp4702
g1028
g1000
sbsI32
g0
(g1015
g1016
(dp4703
tp4704
Rp4705
(dp4706
g1028
g1000
sbsI33
g0
(g1015
g1016
(dp4707
tp4708
Rp4709
(dp4710
g1028
g1000
sbsI34
g0
(g1015
g1016
(dp4711
tp4712
Rp4713
(dp4714
g1028
g1000
sbsI35
g0
(g1015
g1016
(dp4715
tp4716
Rp4717
(dp4718
g1028
g1000
sbsI36
g0
(g1015
g1016
(dp4719
tp4720
Rp4721
(dp4722
g1028
g1000
sbsI37
g0
(g1015
g1016
(dp4723
tp4724
Rp4725
(dp4726
g1028
g1000
sbsI38
g0
(g1015
g1016
(dp4727
tp4728
Rp4729
(dp4730
g1028
g1000
sbsI39
g0
(g1015
g1016
(dp4731
tp4732
Rp4733
(dp4734
g1028
g1000
sbsI40
g0
(g1015
g1016
(dp4735
tp4736
Rp4737
(dp4738
g1028
g1000
sbsI41
g0
(g1015
g1016
(dp4739
tp4740
Rp4741
(dp4742
g1028
g1000
sbsI42
g0
(g1015
g1016
(dp4743
tp4744
Rp4745
(dp4746
g1028
g1000
sbsI43
g0
(g1015
g1016
(dp4747
tp4748
Rp4749
(dp4750
g1028
g1000
sbsI44
g0
(g1015
g1016
(dp4751
tp4752
Rp4753
(dp4754
g1028
g1000
sbsI45
g0
(g1015
g1016
(dp4755
tp4756
Rp4757
(dp4758
g1028
g1000
sbsI46
g0
(g1015
g1016
(dp4759
tp4760
Rp4761
(dp4762
g1028
g1000
sbsI47
g0
(g1015
g1016
(dp4763
tp4764
Rp4765
(dp4766
g1028
g1000
sbsI48
g0
(g1015
g1016
(dp4767
tp4768
Rp4769
(dp4770
g1028
g1000
sbsI49
g0
(g1015
g1016
(dp4771
tp4772
Rp4773
(dp4774
g1028
g1000
sbsI50
g0
(g1015
g1016
(dp4775
tp4776
Rp4777
(dp4778
g1028
g1000
sbsI51
g0
(g1015
g1016
(dp4779
tp4780
Rp4781
(dp4782
g1028
g1000
sbsI52
g0
(g1015
g1016
(dp4783
tp4784
Rp4785
(dp4786
g1028
g1000
sbsI53
g0
(g1015
g1016
(dp4787
tp4788
Rp4789
(dp4790
g1028
g1000
sbsI54
g0
(g1015
g1016
(dp4791
tp4792
Rp4793
(dp4794
g1028
g1000
sbsI55
g0
(g1015
g1016
(dp4795
tp4796
Rp4797
(dp4798
g1028
g1000
sbsI56
g0
(g1015
g1016
(dp4799
tp4800
Rp4801
(dp4802
g1028
g1000
sbsI57
g0
(g1015
g1016
(dp4803
tp4804
Rp4805
(dp4806
g1028
g1000
sbsI58
g0
(g1015
g1016
(dp4807
tp4808
Rp4809
(dp4810
g1028
g1000
sbsI59
g0
(g1015
g1016
(dp4811
tp4812
Rp4813
(dp4814
g1028
g1000
sbsI60
g0
(g1015
g1016
(dp4815
tp4816
Rp4817
(dp4818
g1028
g1000
sbsI61
g0
(g1015
g1016
(dp4819
tp4820
Rp4821
(dp4822
g1028
g1000
sbsI62
g0
(g1015
g1016
(dp4823
tp4824
Rp4825
(dp4826
g1028
g1000
sbsI63
g0
(g1015
g1016
(dp4827
tp4828
Rp4829
(dp4830
g1028
g1000
sbsI64
g0
(g1015
g1016
(dp4831
tp4832
Rp4833
(dp4834
g1028
g1000
sbsI65
g0
(g1015
g1016
(dp4835
tp4836
Rp4837
(dp4838
g1028
g1000
sbsI66
g0
(g1015
g1016
(dp4839
tp4840
Rp4841
(dp4842
g1028
g1000
sbsI67
g0
(g1015
g1016
(dp4843
tp4844
Rp4845
(dp4846
g1028
g1000
sbsI68
g0
(g1015
g1016
(dp4847
tp4848
Rp4849
(dp4850
g1028
g1000
sbsI69
g0
(g1015
g1016
(dp4851
tp4852
Rp4853
(dp4854
g1028
g1000
sbsI70
g0
(g1015
g1016
(dp4855
tp4856
Rp4857
(dp4858
g1028
g1000
sbsI71
g0
(g1015
g1016
(dp4859
tp4860
Rp4861
(dp4862
g1028
g1000
sbsI72
g0
(g1015
g1016
(dp4863
tp4864
Rp4865
(dp4866
g1028
g1000
sbsI73
g0
(g1015
g1016
(dp4867
tp4868
Rp4869
(dp4870
g1028
g1000
sbsI74
g0
(g1015
g1016
(dp4871
tp4872
Rp4873
(dp4874
g1028
g1000
sbsI75
g0
(g1015
g1016
(dp4875
tp4876
Rp4877
(dp4878
g1028
g1000
sbsI76
g0
(g1015
g1016
(dp4879
tp4880
Rp4881
(dp4882
g1028
g1000
sbsI77
g0
(g1015
g1016
(dp4883
tp4884
Rp4885
(dp4886
g1028
g1000
sbsI78
g0
(g1015
g1016
(dp4887
tp4888
Rp4889
(dp4890
g1028
g1000
sbsI79
g0
(g1015
g1016
(dp4891
tp4892
Rp4893
(dp4894
g1028
g1000
sbsI80
g0
(g1015
g1016
(dp4895
tp4896
Rp4897
(dp4898
g1028
g1000
sbsI81
g0
(g1015
g1016
(dp4899
tp4900
Rp4901
(dp4902
g1028
g1000
sbsI82
g0
(g1015
g1016
(dp4903
tp4904
Rp4905
(dp4906
g1028
g1000
sbsI83
g0
(g1015
g1016
(dp4907
tp4908
Rp4909
(dp4910
g1028
g1000
sbsI84
g0
(g1015
g1016
(dp4911
tp4912
Rp4913
(dp4914
g1028
g1000
sbsI85
g0
(g1015
g1016
(dp4915
tp4916
Rp4917
(dp4918
g1028
g1000
sbsI86
g0
(g1015
g1016
(dp4919
tp4920
Rp4921
(dp4922
g1028
g1000
sbsI87
g0
(g1015
g1016
(dp4923
tp4924
Rp4925
(dp4926
g1028
g1000
sbsI88
g0
(g1015
g1016
(dp4927
tp4928
Rp4929
(dp4930
g1028
g1000
sbsI89
g0
(g1015
g1016
(dp4931
tp4932
Rp4933
(dp4934
g1028
g1000
sbsI90
g0
(g1015
g1016
(dp4935
tp4936
Rp4937
(dp4938
g1028
g1000
sbsI91
g0
(g1015
g1016
(dp4939
tp4940
Rp4941
(dp4942
g1028
g1000
sbsI92
g0
(g1015
g1016
(dp4943
tp4944
Rp4945
(dp4946
g1028
g1000
sbsI93
g0
(g1015
g1016
(dp4947
tp4948
Rp4949
(dp4950
g1028
g1000
sbsI94
g0
(g1015
g1016
(dp4951
tp4952
Rp4953
(dp4954
g1028
g1000
sbsI95
g0
(g1015
g1016
(dp4955
tp4956
Rp4957
(dp4958
g1028
g1000
sbsI96
g0
(g1015
g1016
(dp4959
tp4960
Rp4961
(dp4962
g1028
g1000
sbsI97
g0
(g1015
g1016
(dp4963
tp4964
Rp4965
(dp4966
g1028
g1000
sbsI98
g0
(g1015
g1016
(dp4967
tp4968
Rp4969
(dp4970
g1028
g1000
sbsI99
g0
(g1015
g1016
(dp4971
tp4972
Rp4973
(dp4974
g1028
g1000
sbsI100
g0
(g1015
g1016
(dp4975
tp4976
Rp4977
(dp4978
g1028
g1000
sbsI101
g0
(g1015
g1016
(dp4979
tp4980
Rp4981
(dp4982
g1028
g1000
sbsI102
g0
(g1015
g1016
(dp4983
tp4984
Rp4985
(dp4986
g1028
g1000
sbsI103
g0
(g1015
g1016
(dp4987
tp4988
Rp4989
(dp4990
g1028
g1000
sbsI104
g0
(g1015
g1016
(dp4991
tp4992
Rp4993
(dp4994
g1028
g1000
sbsI105
g0
(g1015
g1016
(dp4995
tp4996
Rp4997
(dp4998
g1028
g1000
sbsI106
g0
(g1015
g1016
(dp4999
tp5000
Rp5001
(dp5002
g1028
g1000
sbsI107
g0
(g1015
g1016
(dp5003
tp5004
Rp5005
(dp5006
g1028
g1000
sbsI108
g0
(g1015
g1016
(dp5007
tp5008
Rp5009
(dp5010
g1028
g1000
sbsI109
g0
(g1015
g1016
(dp5011
tp5012
Rp5013
(dp5014
g1028
g1000
sbsI110
g0
(g1015
g1016
(dp5015
tp5016
Rp5017
(dp5018
g1028
g1000
sbsI111
g0
(g1015
g1016
(dp5019
tp5020
Rp5021
(dp5022
g1028
g1000
sbsI112
g0
(g1015
g1016
(dp5023
tp5024
Rp5025
(dp5026
g1028
g1000
sbsI113
g0
(g1015
g1016
(dp5027
tp5028
Rp5029
(dp5030
g1028
g1000
sbsI114
g0
(g1015
g1016
(dp5031
tp5032
Rp5033
(dp5034
g1028
g1000
sbsI115
g0
(g1015
g1016
(dp5035
tp5036
Rp5037
(dp5038
g1028
g1000
sbsI116
g0
(g1015
g1016
(dp5039
tp5040
Rp5041
(dp5042
g1028
g1000
sbsI117
g0
(g1015
g1016
(dp5043
tp5044
Rp5045
(dp5046
g1028
g1000
sbsI118
g0
(g1015
g1016
(dp5047
tp5048
Rp5049
(dp5050
g1028
g1000
sbsI119
g0
(g1015
g1016
(dp5051
tp5052
Rp5053
(dp5054
g1028
g1000
sbsI120
g0
(g1015
g1016
(dp5055
tp5056
Rp5057
(dp5058
g1028
g1000
sbsI121
g0
(g1015
g1016
(dp5059
tp5060
Rp5061
(dp5062
g1028
g1000
sbsI122
g0
(g1015
g1016
(dp5063
tp5064
Rp5065
(dp5066
g1028
g1000
sbsI123
g0
(g1015
g1016
(dp5067
tp5068
Rp5069
(dp5070
g1028
g1000
sbsI124
g0
(g1015
g1016
(dp5071
tp5072
Rp5073
(dp5074
g1028
g1000
sbsI125
g0
(g1015
g1016
(dp5075
tp5076
Rp5077
(dp5078
g1028
g1000
sbsI126
g0
(g1015
g1016
(dp5079
tp5080
Rp5081
(dp5082
g1028
g1000
sbsI127
g0
(g1015
g1016
(dp5083
tp5084
Rp5085
(dp5086
g1028
g1000
sbsI128
g0
(g1015
g1016
(dp5087
tp5088
Rp5089
(dp5090
g1028
g1000
sbsI129
g0
(g1015
g1016
(dp5091
tp5092
Rp5093
(dp5094
g1028
g1000
sbsI130
g0
(g1015
g1016
(dp5095
tp5096
Rp5097
(dp5098
g1028
g1000
sbsI131
g0
(g1015
g1016
(dp5099
tp5100
Rp5101
(dp5102
g1028
g1000
sbsI132
g0
(g1015
g1016
(dp5103
tp5104
Rp5105
(dp5106
g1028
g1000
sbsI133
g0
(g1015
g1016
(dp5107
tp5108
Rp5109
(dp5110
g1028
g1000
sbsI134
g0
(g1015
g1016
(dp5111
tp5112
Rp5113
(dp5114
g1028
g1000
sbsI135
g0
(g1015
g1016
(dp5115
tp5116
Rp5117
(dp5118
g1028
g1000
sbsI136
g0
(g1015
g1016
(dp5119
tp5120
Rp5121
(dp5122
g1028
g1000
sbsI137
g0
(g1015
g1016
(dp5123
tp5124
Rp5125
(dp5126
g1028
g1000
sbsI138
g0
(g1015
g1016
(dp5127
tp5128
Rp5129
(dp5130
g1028
g1000
sbsI139
g0
(g1015
g1016
(dp5131
tp5132
Rp5133
(dp5134
g1028
g1000
sbsI140
g0
(g1015
g1016
(dp5135
tp5136
Rp5137
(dp5138
g1028
g1000
sbsI141
g0
(g1015
g1016
(dp5139
tp5140
Rp5141
(dp5142
g1028
g1000
sbsI142
g0
(g1015
g1016
(dp5143
tp5144
Rp5145
(dp5146
g1028
g1000
sbsI143
g0
(g1015
g1016
(dp5147
tp5148
Rp5149
(dp5150
g1028
g1000
sbsg1068
g0
(g1015
g1016
(dp5151
tp5152
Rp5153
(dp5154
g1028
g1000
sbssS'inputs'
p5155
(dp5156
g977
g980
ssS'_state_dot_mask'
p5157
(dp5158
sS'outputs'
p5159
(dp5160
g8
g972
sg973
g976
sg981
g984
sg985
g988
sg989
g992
sg993
g996
ssS'succ'
p5161
g4425
sS'_edge_label_defaults'
p5162
(dp5163
sS'_node_label_types'
p5164
g1000
sS'_transition_dot_mask'
p5165
(dp5166
sS'states'
p5167
g0
(ctulip.transys.labeled_graphs
States
p5168
g2
Ntp5169
Rp5170
(dp5171
g1007
g4
sS'_initial'
p5172
g0
(ctulip.transys.mathset
SubSet
p5173
g2
Ntp5174
Rp5175
(dp5176
S'_superset'
p5177
g5170
sS'_list'
p5178
(lp5179
sS'_set'
p5180
g9
((lp5181
g1068
atp5182
Rp5183
sbsbsS'edge'
p5184
g4425
sg1007
(dp5185
sS'dot_node_shape'
p5186
(dp5187
S'normal'
p5188
S'ellipse'
p5189
ssS'default_export_fname'
p5190
S'mealy'
p5191
sb.