ccopy_reg
_reconstructor
p0
(ctulip.transys.machines
MealyMachine
p1
c__builtin__
object
p2
Ntp3
Rp4
(dp5
S'_transition_label_def'
p6
(dp7
S'loc'
p8
c__builtin__
set
p9
((lp10
S's420'
p11
aS's424'
p12
aS's207'
p13
aS's206'
p14
aS's205'
p15
aS's204'
p16
aS's203'
p17
aS's202'
p18
aS's201'
p19
aS's200'
p20
aS's209'
p21
aS's208'
p22
aS's57'
p23
aS's56'
p24
aS's55'
p25
aS's54'
p26
aS's53'
p27
aS's52'
p28
aS's51'
p29
aS's50'
p30
aS's59'
p31
aS's58'
p32
aS's142'
p33
aS's638'
p34
aS's639'
p35
aS's636'
p36
aS's637'
p37
aS's634'
p38
aS's635'
p39
aS's632'
p40
aS's633'
p41
aS's630'
p42
aS's631'
p43
aS's348'
p44
aS's349'
p45
aS's342'
p46
aS's343'
p47
aS's340'
p48
aS's341'
p49
aS's346'
p50
aS's347'
p51
aS's344'
p52
aS's345'
p53
aS's196'
p54
aS's748'
p55
aS's19'
p56
aS's708'
p57
aS's709'
p58
aS's702'
p59
aS's703'
p60
aS's700'
p61
aS's701'
p62
aS's706'
p63
aS's707'
p64
aS's704'
p65
aS's705'
p66
aS's713'
p67
aS's119'
p68
aS's118'
p69
aS's117'
p70
aS's116'
p71
aS's115'
p72
aS's114'
p73
aS's113'
p74
aS's112'
p75
aS's111'
p76
aS's110'
p77
aS's11'
p78
aS's10'
p79
aS's719'
p80
aS's493'
p81
aS's416'
p82
aS's417'
p83
aS's414'
p84
aS's415'
p85
aS's412'
p86
aS's413'
p87
aS's410'
p88
aS's411'
p89
aS's418'
p90
aS's419'
p91
aS's799'
p92
aS's798'
p93
aS's795'
p94
aS's794'
p95
aS's797'
p96
aS's796'
p97
aS's791'
p98
aS's790'
p99
aS's793'
p100
aS's792'
p101
aS's291'
p102
aS's780'
p103
aS's834'
p104
aS's835'
p105
aS's836'
p106
aS's837'
p107
aS's830'
p108
aS's938'
p109
aS's832'
p110
aS's833'
p111
aS's935'
p112
aS's934'
p113
aS's937'
p114
aS's936'
p115
aS's838'
p116
aS's839'
p117
aS's933'
p118
aS's932'
p119
aS's811'
p120
aS's562'
p121
aS's563'
p122
aS's249'
p123
aS's248'
p124
aS's566'
p125
aS's567'
p126
aS's564'
p127
aS's565'
p128
aS's243'
p129
aS's242'
p130
aS's241'
p131
aS's240'
p132
aS's247'
p133
aS's246'
p134
aS's245'
p135
aS's244'
p136
aS's841'
p137
aS's840'
p138
aS's843'
p139
aS's842'
p140
aS's845'
p141
aS's844'
p142
aS's847'
p143
aS's846'
p144
aS's849'
p145
aS's848'
p146
aS's818'
p147
aS's258'
p148
aS's819'
p149
aS's259'
p150
aS's742'
p151
aS's743'
p152
aS's308'
p153
aS's309'
p154
aS's306'
p155
aS's307'
p156
aS's304'
p157
aS's305'
p158
aS's302'
p159
aS's303'
p160
aS's300'
p161
aS's301'
p162
aS's665'
p163
aS's664'
p164
aS's667'
p165
aS's666'
p166
aS's661'
p167
aS's660'
p168
aS's663'
p169
aS's749'
p170
aS's746'
p171
aS's747'
p172
aS's744'
p173
aS's745'
p174
aS's669'
p175
aS's668'
p176
aS's740'
p177
aS's741'
p178
aS's153'
p179
aS's152'
p180
aS's151'
p181
aS's150'
p182
aS's157'
p183
aS's156'
p184
aS's155'
p185
aS's154'
p186
aS's159'
p187
aS's158'
p188
aS's190'
p189
aS's391'
p190
aS's390'
p191
aS's393'
p192
aS's8'
p193
aS's395'
p194
aS's394'
p195
aS's397'
p196
aS's396'
p197
aS's3'
p198
aS's2'
p199
aS's1'
p200
aS's0'
p201
aS's7'
p202
aS's6'
p203
aS's5'
p204
aS's4'
p205
aS's451'
p206
aS's593'
p207
aS's592'
p208
aS's591'
p209
aS's590'
p210
aS's597'
p211
aS's596'
p212
aS's595'
p213
aS's594'
p214
aS's599'
p215
aS's598'
p216
aS's9'
p217
aS's392'
p218
aS's326'
p219
aS's333'
p220
aS's698'
p221
aS's699'
p222
aS's16'
p223
aS's788'
p224
aS's690'
p225
aS's691'
p226
aS's692'
p227
aS's693'
p228
aS's694'
p229
aS's695'
p230
aS's696'
p231
aS's697'
p232
aS's399'
p233
aS's467'
p234
aS's256'
p235
aS's398'
p236
aS's61'
p237
aS's332'
p238
aS's257'
p239
aS's878'
p240
aS's879'
p241
aS's870'
p242
aS's871'
p243
aS's872'
p244
aS's873'
p245
aS's874'
p246
aS's875'
p247
aS's876'
p248
aS's877'
p249
aS's526'
p250
aS's527'
p251
aS's524'
p252
aS's525'
p253
aS's522'
p254
aS's523'
p255
aS's289'
p256
aS's288'
p257
aS's287'
p258
aS's286'
p259
aS's285'
p260
aS's284'
p261
aS's283'
p262
aS's282'
p263
aS's281'
p264
aS's280'
p265
aS's885'
p266
aS's884'
p267
aS's887'
p268
aS's886'
p269
aS's881'
p270
aS's448'
p271
aS's883'
p272
aS's882'
p273
aS's445'
p274
aS's444'
p275
aS's447'
p276
aS's446'
p277
aS's441'
p278
aS's440'
p279
aS's443'
p280
aS's442'
p281
aS's330'
p282
aS's143'
p283
aS's904'
p284
aS's905'
p285
aS's906'
p286
aS's907'
p287
aS's900'
p288
aS's901'
p289
aS's902'
p290
aS's903'
p291
aS's456'
p292
aS's908'
p293
aS's909'
p294
aS's232'
p295
aS's233'
p296
aS's230'
p297
aS's231'
p298
aS's236'
p299
aS's237'
p300
aS's234'
p301
aS's235'
p302
aS's238'
p303
aS's239'
p304
aS's82'
p305
aS's44'
p306
aS's45'
p307
aS's46'
p308
aS's47'
p309
aS's40'
p310
aS's41'
p311
aS's42'
p312
aS's43'
p313
aS's337'
p314
aS's48'
p315
aS's49'
p316
aS's85'
p317
aS's629'
p318
aS's628'
p319
aS's335'
p320
aS's621'
p321
aS's620'
p322
aS's623'
p323
aS's87'
p324
aS's625'
p325
aS's624'
p326
aS's627'
p327
aS's626'
p328
aS's355'
p329
aS's354'
p330
aS's357'
p331
aS's356'
p332
aS's351'
p333
aS's350'
p334
aS's353'
p335
aS's352'
p336
aS's359'
p337
aS's358'
p338
aS's715'
p339
aS's714'
p340
aS's717'
p341
aS's716'
p342
aS's711'
p343
aS's710'
p344
aS's498'
p345
aS's712'
p346
aS's496'
p347
aS's497'
p348
aS's494'
p349
aS's495'
p350
aS's492'
p351
aS's718'
p352
aS's490'
p353
aS's491'
p354
aS's658'
p355
aS's659'
p356
aS's654'
p357
aS's655'
p358
aS's656'
p359
aS's657'
p360
aS's650'
p361
aS's651'
p362
aS's652'
p363
aS's653'
p364
aS's128'
p365
aS's129'
p366
aS's122'
p367
aS's123'
p368
aS's120'
p369
aS's121'
p370
aS's126'
p371
aS's127'
p372
aS's124'
p373
aS's125'
p374
aS's401'
p375
aS's400'
p376
aS's403'
p377
aS's402'
p378
aS's405'
p379
aS's404'
p380
aS's407'
p381
aS's406'
p382
aS's409'
p383
aS's408'
p384
aS's229'
p385
aS's604'
p386
aS's827'
p387
aS's826'
p388
aS's825'
p389
aS's824'
p390
aS's823'
p391
aS's38'
p392
aS's821'
p393
aS's820'
p394
aS's35'
p395
aS's34'
p396
aS's37'
p397
aS's36'
p398
aS's31'
p399
aS's30'
p400
aS's946'
p401
aS's32'
p402
aS's276'
p403
aS's277'
p404
aS's274'
p405
aS's275'
p406
aS's272'
p407
aS's273'
p408
aS's270'
p409
aS's271'
p410
aS's278'
p411
aS's279'
p412
aS's474'
p413
aS's475'
p414
aS's476'
p415
aS's477'
p416
aS's470'
p417
aS's471'
p418
aS's472'
p419
aS's473'
p420
aS's575'
p421
aS's574'
p422
aS's577'
p423
aS's576'
p424
aS's478'
p425
aS's479'
p426
aS's573'
p427
aS's572'
p428
aS's948'
p429
aS's949'
p430
aS's319'
p431
aS's318'
p432
aS's469'
p433
aS's311'
p434
aS's39'
p435
aS's313'
p436
aS's312'
p437
aS's315'
p438
aS's314'
p439
aS's317'
p440
aS's316'
p441
aS's18'
p442
aS's940'
p443
aS's468'
p444
aS's941'
p445
aS's942'
p446
aS's610'
p447
aS's758'
p448
aS's612'
p449
aS's943'
p450
aS's614'
p451
aS's615'
p452
aS's616'
p453
aS's617'
p454
aS's618'
p455
aS's619'
p456
aS's753'
p457
aS's752'
p458
aS's755'
p459
aS's754'
p460
aS's757'
p461
aS's662'
p462
aS's33'
p463
aS's168'
p464
aS's169'
p465
aS's166'
p466
aS's167'
p467
aS's164'
p468
aS's165'
p469
aS's162'
p470
aS's163'
p471
aS's160'
p472
aS's161'
p473
aS's368'
p474
aS's369'
p475
aS's364'
p476
aS's365'
p477
aS's366'
p478
aS's367'
p479
aS's360'
p480
aS's361'
p481
aS's362'
p482
aS's363'
p483
aS's944'
p484
aS's822'
p485
aS's602'
p486
aS's221'
p487
aS's220'
p488
aS's148'
p489
aS's728'
p490
aS's729'
p491
aS's149'
p492
aS's724'
p493
aS's725'
p494
aS's726'
p495
aS's727'
p496
aS's720'
p497
aS's721'
p498
aS's722'
p499
aS's723'
p500
aS's689'
p501
aS's688'
p502
aS's683'
p503
aS's682'
p504
aS's681'
p505
aS's680'
p506
aS's687'
p507
aS's686'
p508
aS's685'
p509
aS's684'
p510
aS's869'
p511
aS's868'
p512
aS's863'
p513
aS's862'
p514
aS's861'
p515
aS's860'
p516
aS's867'
p517
aS's866'
p518
aS's865'
p519
aS's864'
p520
aS's531'
p521
aS's530'
p522
aS's533'
p523
aS's532'
p524
aS's535'
p525
aS's534'
p526
aS's537'
p527
aS's536'
p528
aS's539'
p529
aS's538'
p530
aS's578'
p531
aS's438'
p532
aS's439'
p533
aS's72'
p534
aS's945'
p535
aS's430'
p536
aS's431'
p537
aS's432'
p538
aS's433'
p539
aS's434'
p540
aS's435'
p541
aS's436'
p542
aS's437'
p543
aS's184'
p544
aS's185'
p545
aS's186'
p546
aS's187'
p547
aS's180'
p548
aS's181'
p549
aS's182'
p550
aS's183'
p551
aS's188'
p552
aS's189'
p553
aS's917'
p554
aS's916'
p555
aS's915'
p556
aS's914'
p557
aS's913'
p558
aS's912'
p559
aS's911'
p560
aS's910'
p561
aS's571'
p562
aS's521'
p563
aS's919'
p564
aS's918'
p565
aS's388'
p566
aS's170'
p567
aS's544'
p568
aS's545'
p569
aS's546'
p570
aS's547'
p571
aS's540'
p572
aS's541'
p573
aS's542'
p574
aS's543'
p575
aS's225'
p576
aS's224'
p577
aS's227'
p578
aS's226'
p579
aS's548'
p580
aS's549'
p581
aS's223'
p582
aS's222'
p583
aS's79'
p584
aS's78'
p585
aS's528'
p586
aS's71'
p587
aS's70'
p588
aS's73'
p589
aS's529'
p590
aS's75'
p591
aS's74'
p592
aS's77'
p593
aS's76'
p594
aS's93'
p595
aS's92'
p596
aS's91'
p597
aS's90'
p598
aS's97'
p599
aS's96'
p600
aS's95'
p601
aS's94'
p602
aS's328'
p603
aS's449'
p604
aS's99'
p605
aS's98'
p606
aS's459'
p607
aS's880'
p608
aS's320'
p609
aS's321'
p610
aS's322'
p611
aS's323'
p612
aS's324'
p613
aS's325'
p614
aS's760'
p615
aS's761'
p616
aS's762'
p617
aS's763'
p618
aS's829'
p619
aS's228'
p620
aS's766'
p621
aS's767'
p622
aS's481'
p623
aS's480'
p624
aS's483'
p625
aS's327'
p626
aS's485'
p627
aS's484'
p628
aS's487'
p629
aS's486'
p630
aS's135'
p631
aS's134'
p632
aS's137'
p633
aS's136'
p634
aS's131'
p635
aS's130'
p636
aS's133'
p637
aS's329'
p638
aS's647'
p639
aS's646'
p640
aS's645'
p641
aS's644'
p642
aS's643'
p643
aS's642'
p644
aS's641'
p645
aS's640'
p646
aS's828'
p647
aS's765'
p648
aS's69'
p649
aS's570'
p650
aS's812'
p651
aS's813'
p652
aS's810'
p653
aS's958'
p654
aS's816'
p655
aS's817'
p656
aS's814'
p657
aS's815'
p658
aS's953'
p659
aS's952'
p660
aS's951'
p661
aS's950'
p662
aS's957'
p663
aS's956'
p664
aS's955'
p665
aS's954'
p666
aS's261'
p667
aS's260'
p668
aS's263'
p669
aS's262'
p670
aS's265'
p671
aS's264'
p672
aS's267'
p673
aS's310'
p674
aS's269'
p675
aS's268'
p676
aS's508'
p677
aS's509'
p678
aS's465'
p679
aS's464'
p680
aS's463'
p681
aS's462'
p682
aS's461'
p683
aS's460'
p684
aS's500'
p685
aS's501'
p686
aS's502'
p687
aS's503'
p688
aS's504'
p689
aS's505'
p690
aS's506'
p691
aS's507'
p692
aS's947'
p693
aS's959'
p694
aS's939'
p695
aS's214'
p696
aS's215'
p697
aS's216'
p698
aS's217'
p699
aS's210'
p700
aS's211'
p701
aS's212'
p702
aS's213'
p703
aS's218'
p704
aS's219'
p705
aS's22'
p706
aS's23'
p707
aS's20'
p708
aS's21'
p709
aS's26'
p710
aS's27'
p711
aS's24'
p712
aS's25'
p713
aS's520'
p714
aS's28'
p715
aS's29'
p716
aS's603'
p717
aS's489'
p718
aS's601'
p719
aS's600'
p720
aS's607'
p721
aS's606'
p722
aS's605'
p723
aS's488'
p724
aS's609'
p725
aS's608'
p726
aS's179'
p727
aS's178'
p728
aS's171'
p729
aS's764'
p730
aS's173'
p731
aS's172'
p732
aS's175'
p733
aS's174'
p734
aS's177'
p735
aS's831'
p736
aS's379'
p737
aS's378'
p738
aS's377'
p739
aS's376'
p740
aS's375'
p741
aS's374'
p742
aS's373'
p743
aS's372'
p744
aS's371'
p745
aS's370'
p746
aS's768'
p747
aS's769'
p748
aS's482'
p749
aS's931'
p750
aS's930'
p751
aS's739'
p752
aS's738'
p753
aS's737'
p754
aS's736'
p755
aS's735'
p756
aS's734'
p757
aS's733'
p758
aS's732'
p759
aS's731'
p760
aS's730'
p761
aS's108'
p762
aS's109'
p763
aS's104'
p764
aS's105'
p765
aS's106'
p766
aS's107'
p767
aS's100'
p768
aS's101'
p769
aS's102'
p770
aS's103'
p771
aS's759'
p772
aS's649'
p773
aS's611'
p774
aS's132'
p775
aS's466'
p776
aS's613'
p777
aS's782'
p778
aS's783'
p779
aS's429'
p780
aS's428'
p781
aS's786'
p782
aS's787'
p783
aS's784'
p784
aS's785'
p785
aS's423'
p786
aS's139'
p787
aS's421'
p788
aS's789'
p789
aS's427'
p790
aS's426'
p791
aS's425'
p792
aS's138'
p793
aS's197'
p794
aS's751'
p795
aS's195'
p796
aS's194'
p797
aS's193'
p798
aS's192'
p799
aS's191'
p800
aS's750'
p801
aS's622'
p802
aS's199'
p803
aS's198'
p804
aS's922'
p805
aS's923'
p806
aS's920'
p807
aS's921'
p808
aS's926'
p809
aS's927'
p810
aS's924'
p811
aS's925'
p812
aS's13'
p813
aS's12'
p814
aS's928'
p815
aS's929'
p816
aS's17'
p817
aS's560'
p818
aS's15'
p819
aS's14'
p820
aS's561'
p821
aS's756'
p822
aS's176'
p823
aS's557'
p824
aS's556'
p825
aS's555'
p826
aS's554'
p827
aS's553'
p828
aS's552'
p829
aS's551'
p830
aS's550'
p831
aS's250'
p832
aS's251'
p833
aS's252'
p834
aS's253'
p835
aS's254'
p836
aS's255'
p837
aS's559'
p838
aS's558'
p839
aS's856'
p840
aS's857'
p841
aS's854'
p842
aS's855'
p843
aS's852'
p844
aS's853'
p845
aS's850'
p846
aS's851'
p847
aS's66'
p848
aS's67'
p849
aS's64'
p850
aS's65'
p851
aS's62'
p852
aS's63'
p853
aS's858'
p854
aS's859'
p855
aS's60'
p856
aS's569'
p857
aS's80'
p858
aS's81'
p859
aS's331'
p860
aS's83'
p861
aS's84'
p862
aS's336'
p863
aS's86'
p864
aS's334'
p865
aS's88'
p866
aS's89'
p867
aS's339'
p868
aS's338'
p869
aS's68'
p870
aS's579'
p871
aS's773'
p872
aS's772'
p873
aS's771'
p874
aS's770'
p875
aS's777'
p876
aS's776'
p877
aS's775'
p878
aS's774'
p879
aS's779'
p880
aS's778'
p881
aS's450'
p882
aS's140'
p883
aS's141'
p884
aS's678'
p885
aS's679'
p886
aS's144'
p887
aS's145'
p888
aS's146'
p889
aS's147'
p890
aS's672'
p891
aS's673'
p892
aS's670'
p893
aS's671'
p894
aS's676'
p895
aS's677'
p896
aS's674'
p897
aS's675'
p898
aS's386'
p899
aS's387'
p900
aS's384'
p901
aS's385'
p902
aS's382'
p903
aS's383'
p904
aS's380'
p905
aS's381'
p906
aS's499'
p907
aS's389'
p908
aS's568'
p909
aS's458'
p910
aS's580'
p911
aS's581'
p912
aS's582'
p913
aS's583'
p914
aS's584'
p915
aS's585'
p916
aS's586'
p917
aS's587'
p918
aS's588'
p919
aS's589'
p920
aS's899'
p921
aS's889'
p922
aS's809'
p923
aS's808'
p924
aS's805'
p925
aS's804'
p926
aS's807'
p927
aS's806'
p928
aS's801'
p929
aS's800'
p930
aS's803'
p931
aS's802'
p932
aS's781'
p933
aS's298'
p934
aS's299'
p935
aS's294'
p936
aS's295'
p937
aS's296'
p938
aS's297'
p939
aS's290'
p940
aS's888'
p941
aS's292'
p942
aS's293'
p943
aS's648'
p944
aS's453'
p945
aS's519'
p946
aS's518'
p947
aS's266'
p948
aS's457'
p949
aS's454'
p950
aS's455'
p951
aS's513'
p952
aS's512'
p953
aS's511'
p954
aS's510'
p955
aS's517'
p956
aS's516'
p957
aS's515'
p958
aS's514'
p959
aS's898'
p960
aS's452'
p961
aS's422'
p962
aS's892'
p963
aS's893'
p964
aS's890'
p965
aS's891'
p966
aS's896'
p967
aS's897'
p968
aS's894'
p969
aS's895'
p970
atp971
Rp972
sS'noHXfreeze'
p973
g9
((lp974
I0
aI1
atp975
Rp976
sS'level'
p977
g9
((lp978
I0
aI1
aI2
atp979
Rp980
sS'tempCold'
p981
g9
((lp982
I0
aI1
atp983
Rp984
sS'tempGood'
p985
g9
((lp986
I0
aI1
atp987
Rp988
sS'trackfl'
p989
g9
((lp990
I0
aI1
aI2
aI3
atp991
Rp992
sS'tempHot'
p993
g9
((lp994
I0
aI1
atp995
Rp996
ssS'_node_label_defaults'
p997
(dp998
sS'_state_label_def'
p999
(dp1000
sS'_edge_label_types'
p1001
g7
sS'transitions'
p1002
g0
(ctulip.transys.labeled_graphs
Transitions
p1003
g2
Ntp1004
Rp1005
(dp1006
S'graph'
p1007
g4
sS'_deterministic'
p1008
I00
sbsS'state_vars'
p1009
(dp1010
sS'pred'
p1011
(dp1012
I0
(dp1013
I168
(dp1014
I0
g0
(ctulip.transys.mathset
TypedDict
p1015
c__builtin__
dict
p1016
(dp1017
S'loc'
p1018
g370
sS'noHXfreeze'
p1019
I1
sS'tempCold'
p1020
I0
sS'level'
p1021
I0
sS'trackfl'
p1022
I1
sS'tempHot'
p1023
I0
sS'tempGood'
p1024
I1
stp1025
Rp1026
(dp1027
S'allowed_values'
p1028
g7
sbsssI1
(dp1029
I0
(dp1030
I0
g0
(g1015
g1016
(dp1031
S'loc'
p1032
g374
sS'noHXfreeze'
p1033
I0
sS'tempCold'
p1034
I0
sS'level'
p1035
I0
sS'trackfl'
p1036
I1
sS'tempHot'
p1037
I0
sS'tempGood'
p1038
I1
stp1039
Rp1040
(dp1041
g1028
g7
sbssI96
(dp1042
I0
g0
(g1015
g1016
(dp1043
g1032
g374
sg1033
I0
sg1034
I0
sg1035
I0
sg1036
I1
sg1037
I0
sg1038
I1
stp1044
Rp1045
(dp1046
g1028
g7
sbssI167
(dp1047
I0
g0
(g1015
g1016
(dp1048
g1032
g374
sg1033
I0
sg1034
I0
sg1035
I0
sg1036
I1
sg1037
I0
sg1038
I1
stp1049
Rp1050
(dp1051
g1028
g7
sbssI166
(dp1052
I0
g0
(g1015
g1016
(dp1053
g1032
g374
sg1033
I0
sg1034
I0
sg1035
I0
sg1036
I1
sg1037
I0
sg1038
I1
stp1054
Rp1055
(dp1056
g1028
g7
sbssI97
(dp1057
I0
g0
(g1015
g1016
(dp1058
g1032
g374
sg1033
I0
sg1034
I0
sg1035
I0
sg1036
I1
sg1037
I0
sg1038
I1
stp1059
Rp1060
(dp1061
g1028
g7
sbsssI2
(dp1062
I4
(dp1063
I0
g0
(g1015
g1016
(dp1064
S'loc'
p1065
g380
sS'noHXfreeze'
p1066
I1
sS'tempCold'
p1067
I1
sS'level'
p1068
I0
sS'trackfl'
p1069
I2
sS'tempHot'
p1070
I0
sS'tempGood'
p1071
I0
stp1072
Rp1073
(dp1074
g1028
g7
sbssI150
(dp1075
I0
g0
(g1015
g1016
(dp1076
g1065
g380
sg1066
I1
sg1067
I1
sg1068
I0
sg1069
I2
sg1070
I0
sg1071
I0
stp1077
Rp1078
(dp1079
g1028
g7
sbsssI3
(dp1080
I5
(dp1081
I0
g0
(g1015
g1016
(dp1082
S'loc'
p1083
g84
sS'noHXfreeze'
p1084
I0
sS'tempCold'
p1085
I0
sS'level'
p1086
I0
sS'trackfl'
p1087
I3
sS'tempHot'
p1088
I0
sS'tempGood'
p1089
I0
stp1090
Rp1091
(dp1092
g1028
g7
sbsssI4
(dp1093
I2
(dp1094
I0
g0
(g1015
g1016
(dp1095
S'loc'
p1096
g379
sS'noHXfreeze'
p1097
I0
sS'tempCold'
p1098
I1
sS'level'
p1099
I1
sS'trackfl'
p1100
I2
sS'tempHot'
p1101
I0
sS'tempGood'
p1102
I0
stp1103
Rp1104
(dp1105
g1028
g7
sbssI147
(dp1106
I0
g0
(g1015
g1016
(dp1107
g1096
g379
sg1097
I0
sg1098
I1
sg1099
I1
sg1100
I2
sg1101
I0
sg1102
I0
stp1108
Rp1109
(dp1110
g1028
g7
sbssI5
(dp1111
I0
g0
(g1015
g1016
(dp1112
g1096
g379
sg1097
I0
sg1098
I1
sg1099
I1
sg1100
I2
sg1101
I0
sg1102
I0
stp1113
Rp1114
(dp1115
g1028
g7
sbsssI5
(dp1116
I2
(dp1117
I0
g0
(g1015
g1016
(dp1118
S'loc'
p1119
g864
sS'noHXfreeze'
p1120
I0
sS'tempCold'
p1121
I0
sS'level'
p1122
I0
sS'trackfl'
p1123
I3
sS'tempHot'
p1124
I0
sS'tempGood'
p1125
I0
stp1126
Rp1127
(dp1128
g1028
g7
sbssI147
(dp1129
I0
g0
(g1015
g1016
(dp1130
g1119
g864
sg1120
I0
sg1121
I0
sg1122
I0
sg1123
I3
sg1124
I0
sg1125
I0
stp1131
Rp1132
(dp1133
g1028
g7
sbsssI6
(dp1134
I7
(dp1135
I0
g0
(g1015
g1016
(dp1136
S'loc'
p1137
g606
sS'noHXfreeze'
p1138
I0
sS'tempCold'
p1139
I0
sS'level'
p1140
I0
sS'trackfl'
p1141
I3
sS'tempHot'
p1142
I0
sS'tempGood'
p1143
I0
stp1144
Rp1145
(dp1146
g1028
g7
sbsssI7
(dp1147
I140
(dp1148
I0
g0
(g1015
g1016
(dp1149
S'loc'
p1150
g781
sS'noHXfreeze'
p1151
I1
sS'tempCold'
p1152
I0
sS'level'
p1153
I0
sS'trackfl'
p1154
I3
sS'tempHot'
p1155
I0
sS'tempGood'
p1156
I0
stp1157
Rp1158
(dp1159
g1028
g7
sbssI141
(dp1160
I0
g0
(g1015
g1016
(dp1161
g1150
g781
sg1151
I1
sg1152
I0
sg1153
I0
sg1154
I3
sg1155
I0
sg1156
I0
stp1162
Rp1163
(dp1164
g1028
g7
sbssI142
(dp1165
I0
g0
(g1015
g1016
(dp1166
g1150
g781
sg1151
I1
sg1152
I0
sg1153
I0
sg1154
I3
sg1155
I0
sg1156
I0
stp1167
Rp1168
(dp1169
g1028
g7
sbsssI8
(dp1170
I9
(dp1171
I0
g0
(g1015
g1016
(dp1172
S'loc'
p1173
g606
sS'noHXfreeze'
p1174
I0
sS'tempCold'
p1175
I0
sS'level'
p1176
I1
sS'trackfl'
p1177
I3
sS'tempHot'
p1178
I0
sS'tempGood'
p1179
I0
stp1180
Rp1181
(dp1182
g1028
g7
sbsssI9
(dp1183
I140
(dp1184
I0
g0
(g1015
g1016
(dp1185
S'loc'
p1186
g781
sS'noHXfreeze'
p1187
I1
sS'tempCold'
p1188
I0
sS'level'
p1189
I1
sS'trackfl'
p1190
I3
sS'tempHot'
p1191
I0
sS'tempGood'
p1192
I0
stp1193
Rp1194
(dp1195
g1028
g7
sbssI141
(dp1196
I0
g0
(g1015
g1016
(dp1197
g1186
g781
sg1187
I1
sg1188
I0
sg1189
I1
sg1190
I3
sg1191
I0
sg1192
I0
stp1198
Rp1199
(dp1200
g1028
g7
sbssI142
(dp1201
I0
g0
(g1015
g1016
(dp1202
g1186
g781
sg1187
I1
sg1188
I0
sg1189
I1
sg1190
I3
sg1191
I0
sg1192
I0
stp1203
Rp1204
(dp1205
g1028
g7
sbsssI10
(dp1206
I12
(dp1207
I0
g0
(g1015
g1016
(dp1208
S'loc'
p1209
g538
sS'noHXfreeze'
p1210
I0
sS'tempCold'
p1211
I0
sS'level'
p1212
I0
sS'trackfl'
p1213
I3
sS'tempHot'
p1214
I0
sS'tempGood'
p1215
I0
stp1216
Rp1217
(dp1218
g1028
g7
sbsssI11
(dp1219
I144
(dp1220
I0
g0
(g1015
g1016
(dp1221
S'loc'
p1222
g598
sS'noHXfreeze'
p1223
I0
sS'tempCold'
p1224
I0
sS'level'
p1225
I1
sS'trackfl'
p1226
I3
sS'tempHot'
p1227
I0
sS'tempGood'
p1228
I0
stp1229
Rp1230
(dp1231
g1028
g7
sbssI3
(dp1232
I0
g0
(g1015
g1016
(dp1233
g1222
g598
sg1223
I0
sg1224
I0
sg1225
I1
sg1226
I3
sg1227
I0
sg1228
I0
stp1234
Rp1235
(dp1236
g1028
g7
sbssI12
(dp1237
I0
g0
(g1015
g1016
(dp1238
g1222
g598
sg1223
I0
sg1224
I0
sg1225
I1
sg1226
I3
sg1227
I0
sg1228
I0
stp1239
Rp1240
(dp1241
g1028
g7
sbssI13
(dp1242
I0
g0
(g1015
g1016
(dp1243
g1222
g598
sg1223
I0
sg1224
I0
sg1225
I1
sg1226
I3
sg1227
I0
sg1228
I0
stp1244
Rp1245
(dp1246
g1028
g7
sbsssI12
(dp1247
I144
(dp1248
I0
g0
(g1015
g1016
(dp1249
S'loc'
p1250
g595
sS'noHXfreeze'
p1251
I0
sS'tempCold'
p1252
I0
sS'level'
p1253
I0
sS'trackfl'
p1254
I3
sS'tempHot'
p1255
I0
sS'tempGood'
p1256
I0
stp1257
Rp1258
(dp1259
g1028
g7
sbssI13
(dp1260
I0
g0
(g1015
g1016
(dp1261
g1250
g595
sg1251
I0
sg1252
I0
sg1253
I0
sg1254
I3
sg1255
I0
sg1256
I0
stp1262
Rp1263
(dp1264
g1028
g7
sbsssI13
(dp1265
I9
(dp1266
I0
g0
(g1015
g1016
(dp1267
S'loc'
p1268
g596
sS'noHXfreeze'
p1269
I0
sS'tempCold'
p1270
I0
sS'level'
p1271
I0
sS'trackfl'
p1272
I3
sS'tempHot'
p1273
I0
sS'tempGood'
p1274
I0
stp1275
Rp1276
(dp1277
g1028
g7
sbssI139
(dp1278
I0
g0
(g1015
g1016
(dp1279
g1268
g596
sg1269
I0
sg1270
I0
sg1271
I0
sg1272
I3
sg1273
I0
sg1274
I0
stp1280
Rp1281
(dp1282
g1028
g7
sbsssI14
(dp1283
I160
(dp1284
I0
g0
(g1015
g1016
(dp1285
S'loc'
p1286
g882
sS'noHXfreeze'
p1287
I0
sS'tempCold'
p1288
I0
sS'level'
p1289
I0
sS'trackfl'
p1290
I1
sS'tempHot'
p1291
I0
sS'tempGood'
p1292
I1
stp1293
Rp1294
(dp1295
g1028
g7
sbssI161
(dp1296
I0
g0
(g1015
g1016
(dp1297
g1286
g882
sg1287
I0
sg1288
I0
sg1289
I0
sg1290
I1
sg1291
I0
sg1292
I1
stp1298
Rp1299
(dp1300
g1028
g7
sbssI122
(dp1301
I0
g0
(g1015
g1016
(dp1302
g1286
g882
sg1287
I0
sg1288
I0
sg1289
I0
sg1290
I1
sg1291
I0
sg1292
I1
stp1303
Rp1304
(dp1305
g1028
g7
sbssI162
(dp1306
I0
g0
(g1015
g1016
(dp1307
g1286
g882
sg1287
I0
sg1288
I0
sg1289
I0
sg1290
I1
sg1291
I0
sg1292
I1
stp1308
Rp1309
(dp1310
g1028
g7
sbssI127
(dp1311
I0
g0
(g1015
g1016
(dp1312
g1286
g882
sg1287
I0
sg1288
I0
sg1289
I0
sg1290
I1
sg1291
I0
sg1292
I1
stp1313
Rp1314
(dp1315
g1028
g7
sbsssI15
(dp1316
I117
(dp1317
I0
g0
(g1015
g1016
(dp1318
S'loc'
p1319
g292
sS'noHXfreeze'
p1320
I0
sS'tempCold'
p1321
I0
sS'level'
p1322
I2
sS'trackfl'
p1323
I1
sS'tempHot'
p1324
I0
sS'tempGood'
p1325
I1
stp1326
Rp1327
(dp1328
g1028
g7
sbsssI16
(dp1329
S'Sinit'
p1330
(dp1331
I0
g0
(g1015
g1016
(dp1332
S'loc'
p1333
g292
sS'noHXfreeze'
p1334
I0
sS'tempCold'
p1335
I0
sS'level'
p1336
I1
sS'trackfl'
p1337
I1
sS'tempHot'
p1338
I0
sS'tempGood'
p1339
I1
stp1340
Rp1341
(dp1342
g1028
g7
sbssI117
(dp1343
I0
g0
(g1015
g1016
(dp1344
g1333
g292
sg1334
I0
sg1335
I0
sg1336
I1
sg1337
I1
sg1338
I0
sg1339
I1
stp1345
Rp1346
(dp1347
g1028
g7
sbsssI17
(dp1348
I117
(dp1349
I0
g0
(g1015
g1016
(dp1350
S'loc'
p1351
g682
sS'noHXfreeze'
p1352
I0
sS'tempCold'
p1353
I0
sS'level'
p1354
I0
sS'trackfl'
p1355
I1
sS'tempHot'
p1356
I0
sS'tempGood'
p1357
I1
stp1358
Rp1359
(dp1360
g1028
g7
sbsssI18
(dp1361
I19
(dp1362
I0
g0
(g1015
g1016
(dp1363
S'loc'
p1364
g635
sS'noHXfreeze'
p1365
I0
sS'tempCold'
p1366
I0
sS'level'
p1367
I0
sS'trackfl'
p1368
I1
sS'tempHot'
p1369
I0
sS'tempGood'
p1370
I1
stp1371
Rp1372
(dp1373
g1028
g7
sbsssI19
(dp1374
I98
(dp1375
I0
g0
(g1015
g1016
(dp1376
S'loc'
p1377
g372
sS'noHXfreeze'
p1378
I1
sS'tempCold'
p1379
I0
sS'level'
p1380
I0
sS'trackfl'
p1381
I1
sS'tempHot'
p1382
I0
sS'tempGood'
p1383
I1
stp1384
Rp1385
(dp1386
g1028
g7
sbssI99
(dp1387
I0
g0
(g1015
g1016
(dp1388
g1377
g372
sg1378
I1
sg1379
I0
sg1380
I0
sg1381
I1
sg1382
I0
sg1383
I1
stp1389
Rp1390
(dp1391
g1028
g7
sbssI100
(dp1392
I0
g0
(g1015
g1016
(dp1393
g1377
g372
sg1378
I1
sg1379
I0
sg1380
I0
sg1381
I1
sg1382
I0
sg1383
I1
stp1394
Rp1395
(dp1396
g1028
g7
sbsssI20
(dp1397
I88
(dp1398
I0
g0
(g1015
g1016
(dp1399
S'loc'
p1400
g634
sS'noHXfreeze'
p1401
I1
sS'tempCold'
p1402
I0
sS'level'
p1403
I0
sS'trackfl'
p1404
I1
sS'tempHot'
p1405
I0
sS'tempGood'
p1406
I1
stp1407
Rp1408
(dp1409
g1028
g7
sbssI89
(dp1410
I0
g0
(g1015
g1016
(dp1411
g1400
g634
sg1401
I1
sg1402
I0
sg1403
I0
sg1404
I1
sg1405
I0
sg1406
I1
stp1412
Rp1413
(dp1414
g1028
g7
sbsssI21
(dp1415
I80
(dp1416
I0
g0
(g1015
g1016
(dp1417
S'loc'
p1418
g283
sS'noHXfreeze'
p1419
I0
sS'tempCold'
p1420
I0
sS'level'
p1421
I0
sS'trackfl'
p1422
I3
sS'tempHot'
p1423
I0
sS'tempGood'
p1424
I0
stp1425
Rp1426
(dp1427
g1028
g7
sbsssI22
(dp1428
I23
(dp1429
I0
g0
(g1015
g1016
(dp1430
S'loc'
p1431
g184
sS'noHXfreeze'
p1432
I0
sS'tempCold'
p1433
I0
sS'level'
p1434
I2
sS'trackfl'
p1435
I0
sS'tempHot'
p1436
I1
sS'tempGood'
p1437
I0
stp1438
Rp1439
(dp1440
g1028
g7
sbsssI23
(dp1441
I24
(dp1442
I0
g0
(g1015
g1016
(dp1443
S'loc'
p1444
g473
sS'noHXfreeze'
p1445
I0
sS'tempCold'
p1446
I0
sS'level'
p1447
I2
sS'trackfl'
p1448
I0
sS'tempHot'
p1449
I1
sS'tempGood'
p1450
I0
stp1451
Rp1452
(dp1453
g1028
g7
sbsssI24
(dp1454
I38
(dp1455
I0
g0
(g1015
g1016
(dp1456
S'loc'
p1457
g468
sS'noHXfreeze'
p1458
I0
sS'tempCold'
p1459
I0
sS'level'
p1460
I2
sS'trackfl'
p1461
I0
sS'tempHot'
p1462
I1
sS'tempGood'
p1463
I0
stp1464
Rp1465
(dp1466
g1028
g7
sbsssI25
(dp1467
I26
(dp1468
I0
g0
(g1015
g1016
(dp1469
S'loc'
p1470
g188
sS'noHXfreeze'
p1471
I0
sS'tempCold'
p1472
I0
sS'level'
p1473
I1
sS'trackfl'
p1474
I0
sS'tempHot'
p1475
I1
sS'tempGood'
p1476
I0
stp1477
Rp1478
(dp1479
g1028
g7
sbsssI26
(dp1480
I40
(dp1481
I0
g0
(g1015
g1016
(dp1482
S'loc'
p1483
g472
sS'noHXfreeze'
p1484
I1
sS'tempCold'
p1485
I0
sS'level'
p1486
I1
sS'trackfl'
p1487
I0
sS'tempHot'
p1488
I1
sS'tempGood'
p1489
I0
stp1490
Rp1491
(dp1492
g1028
g7
sbssI41
(dp1493
I0
g0
(g1015
g1016
(dp1494
g1483
g472
sg1484
I1
sg1485
I0
sg1486
I1
sg1487
I0
sg1488
I1
sg1489
I0
stp1495
Rp1496
(dp1497
g1028
g7
sbssI27
(dp1498
I0
g0
(g1015
g1016
(dp1499
g1483
g472
sg1484
I1
sg1485
I0
sg1486
I1
sg1487
I0
sg1488
I1
sg1489
I0
stp1500
Rp1501
(dp1502
g1028
g7
sbssI29
(dp1503
I0
g0
(g1015
g1016
(dp1504
g1483
g472
sg1484
I1
sg1485
I0
sg1486
I1
sg1487
I0
sg1488
I1
sg1489
I0
stp1505
Rp1506
(dp1507
g1028
g7
sbssI39
(dp1508
I0
g0
(g1015
g1016
(dp1509
g1483
g472
sg1484
I1
sg1485
I0
sg1486
I1
sg1487
I0
sg1488
I1
sg1489
I0
stp1510
Rp1511
(dp1512
g1028
g7
sbsssI27
(dp1513
I36
(dp1514
I0
g0
(g1015
g1016
(dp1515
S'loc'
p1516
g468
sS'noHXfreeze'
p1517
I0
sS'tempCold'
p1518
I0
sS'level'
p1519
I0
sS'trackfl'
p1520
I0
sS'tempHot'
p1521
I1
sS'tempGood'
p1522
I0
stp1523
Rp1524
(dp1525
g1028
g7
sbssI37
(dp1526
I0
g0
(g1015
g1016
(dp1527
g1516
g468
sg1517
I0
sg1518
I0
sg1519
I0
sg1520
I0
sg1521
I1
sg1522
I0
stp1528
Rp1529
(dp1530
g1028
g7
sbssI38
(dp1531
I0
g0
(g1015
g1016
(dp1532
g1516
g468
sg1517
I0
sg1518
I0
sg1519
I0
sg1520
I0
sg1521
I1
sg1522
I0
stp1533
Rp1534
(dp1535
g1028
g7
sbssI23
(dp1536
I0
g0
(g1015
g1016
(dp1537
g1516
g468
sg1517
I0
sg1518
I0
sg1519
I0
sg1520
I0
sg1521
I1
sg1522
I0
stp1538
Rp1539
(dp1540
g1028
g7
sbssI24
(dp1541
I0
g0
(g1015
g1016
(dp1542
g1516
g468
sg1517
I0
sg1518
I0
sg1519
I0
sg1520
I0
sg1521
I1
sg1522
I0
stp1543
Rp1544
(dp1545
g1028
g7
sbssI26
(dp1546
I0
g0
(g1015
g1016
(dp1547
g1516
g468
sg1517
I0
sg1518
I0
sg1519
I0
sg1520
I0
sg1521
I1
sg1522
I0
stp1548
Rp1549
(dp1550
g1028
g7
sbssI30
(dp1551
I0
g0
(g1015
g1016
(dp1552
g1516
g468
sg1517
I0
sg1518
I0
sg1519
I0
sg1520
I0
sg1521
I1
sg1522
I0
stp1553
Rp1554
(dp1555
g1028
g7
sbsssI28
(dp1556
I30
(dp1557
I0
g0
(g1015
g1016
(dp1558
S'loc'
p1559
g184
sS'noHXfreeze'
p1560
I0
sS'tempCold'
p1561
I0
sS'level'
p1562
I1
sS'trackfl'
p1563
I0
sS'tempHot'
p1564
I1
sS'tempGood'
p1565
I0
stp1566
Rp1567
(dp1568
g1028
g7
sbsssI29
(dp1569
I26
(dp1570
I0
g0
(g1015
g1016
(dp1571
S'loc'
p1572
g468
sS'noHXfreeze'
p1573
I0
sS'tempCold'
p1574
I0
sS'level'
p1575
I2
sS'trackfl'
p1576
I0
sS'tempHot'
p1577
I1
sS'tempGood'
p1578
I0
stp1579
Rp1580
(dp1581
g1028
g7
sbssI36
(dp1582
I0
g0
(g1015
g1016
(dp1583
g1572
g468
sg1573
I0
sg1574
I0
sg1575
I2
sg1576
I0
sg1577
I1
sg1578
I0
stp1584
Rp1585
(dp1586
g1028
g7
sbssI30
(dp1587
I0
g0
(g1015
g1016
(dp1588
g1572
g468
sg1573
I0
sg1574
I0
sg1575
I2
sg1576
I0
sg1577
I1
sg1578
I0
stp1589
Rp1590
(dp1591
g1028
g7
sbsssI30
(dp1592
I36
(dp1593
I0
g0
(g1015
g1016
(dp1594
S'loc'
p1595
g473
sS'noHXfreeze'
p1596
I0
sS'tempCold'
p1597
I0
sS'level'
p1598
I1
sS'trackfl'
p1599
I0
sS'tempHot'
p1600
I1
sS'tempGood'
p1601
I0
stp1602
Rp1603
(dp1604
g1028
g7
sbsssI31
(dp1605
I32
(dp1606
I0
g0
(g1015
g1016
(dp1607
S'loc'
p1608
g890
sS'noHXfreeze'
p1609
I0
sS'tempCold'
p1610
I0
sS'level'
p1611
I2
sS'trackfl'
p1612
I3
sS'tempHot'
p1613
I0
sS'tempGood'
p1614
I0
stp1615
Rp1616
(dp1617
g1028
g7
sbsssI32
(dp1618
I33
(dp1619
I0
g0
(g1015
g1016
(dp1620
S'loc'
p1621
g180
sS'noHXfreeze'
p1622
I0
sS'tempCold'
p1623
I0
sS'level'
p1624
I2
sS'trackfl'
p1625
I3
sS'tempHot'
p1626
I0
sS'tempGood'
p1627
I0
stp1628
Rp1629
(dp1630
g1028
g7
sbsssI33
(dp1631
I35
(dp1632
I0
g0
(g1015
g1016
(dp1633
S'loc'
p1634
g179
sS'noHXfreeze'
p1635
I0
sS'tempCold'
p1636
I0
sS'level'
p1637
I2
sS'trackfl'
p1638
I3
sS'tempHot'
p1639
I0
sS'tempGood'
p1640
I0
stp1641
Rp1642
(dp1643
g1028
g7
sbssI22
(dp1644
I0
g0
(g1015
g1016
(dp1645
g1634
g179
sg1635
I0
sg1636
I0
sg1637
I2
sg1638
I3
sg1639
I0
sg1640
I0
stp1646
Rp1647
(dp1648
g1028
g7
sbsssI34
(dp1649
I32
(dp1650
I0
g0
(g1015
g1016
(dp1651
S'loc'
p1652
g179
sS'noHXfreeze'
p1653
I0
sS'tempCold'
p1654
I0
sS'level'
p1655
I1
sS'trackfl'
p1656
I3
sS'tempHot'
p1657
I0
sS'tempGood'
p1658
I0
stp1659
Rp1660
(dp1661
g1028
g7
sbssI33
(dp1662
I0
g0
(g1015
g1016
(dp1663
g1652
g179
sg1653
I0
sg1654
I0
sg1655
I1
sg1656
I3
sg1657
I0
sg1658
I0
stp1664
Rp1665
(dp1666
g1028
g7
sbssI35
(dp1667
I0
g0
(g1015
g1016
(dp1668
g1652
g179
sg1653
I0
sg1654
I0
sg1655
I1
sg1656
I3
sg1657
I0
sg1658
I0
stp1669
Rp1670
(dp1671
g1028
g7
sbssI22
(dp1672
I0
g0
(g1015
g1016
(dp1673
g1652
g179
sg1653
I0
sg1654
I0
sg1655
I1
sg1656
I3
sg1657
I0
sg1658
I0
stp1674
Rp1675
(dp1676
g1028
g7
sbssI25
(dp1677
I0
g0
(g1015
g1016
(dp1678
g1652
g179
sg1653
I0
sg1654
I0
sg1655
I1
sg1656
I3
sg1657
I0
sg1658
I0
stp1679
Rp1680
(dp1681
g1028
g7
sbssI28
(dp1682
I0
g0
(g1015
g1016
(dp1683
g1652
g179
sg1653
I0
sg1654
I0
sg1655
I1
sg1656
I3
sg1657
I0
sg1658
I0
stp1684
Rp1685
(dp1686
g1028
g7
sbsssI35
(dp1687
I37
(dp1688
I0
g0
(g1015
g1016
(dp1689
S'loc'
p1690
g188
sS'noHXfreeze'
p1691
I0
sS'tempCold'
p1692
I0
sS'level'
p1693
I2
sS'trackfl'
p1694
I0
sS'tempHot'
p1695
I1
sS'tempGood'
p1696
I0
stp1697
Rp1698
(dp1699
g1028
g7
sbsssI36
(dp1700
I24
(dp1701
I0
g0
(g1015
g1016
(dp1702
S'loc'
p1703
g468
sS'noHXfreeze'
p1704
I0
sS'tempCold'
p1705
I0
sS'level'
p1706
I1
sS'trackfl'
p1707
I0
sS'tempHot'
p1708
I1
sS'tempGood'
p1709
I0
stp1710
Rp1711
(dp1712
g1028
g7
sbssI37
(dp1713
I0
g0
(g1015
g1016
(dp1714
g1703
g468
sg1704
I0
sg1705
I0
sg1706
I1
sg1707
I0
sg1708
I1
sg1709
I0
stp1715
Rp1716
(dp1717
g1028
g7
sbssI38
(dp1718
I0
g0
(g1015
g1016
(dp1719
g1703
g468
sg1704
I0
sg1705
I0
sg1706
I1
sg1707
I0
sg1708
I1
sg1709
I0
stp1720
Rp1721
(dp1722
g1028
g7
sbssI23
(dp1723
I0
g0
(g1015
g1016
(dp1724
g1703
g468
sg1704
I0
sg1705
I0
sg1706
I1
sg1707
I0
sg1708
I1
sg1709
I0
stp1725
Rp1726
(dp1727
g1028
g7
sbsssI37
(dp1728
I40
(dp1729
I0
g0
(g1015
g1016
(dp1730
S'loc'
p1731
g472
sS'noHXfreeze'
p1732
I1
sS'tempCold'
p1733
I0
sS'level'
p1734
I2
sS'trackfl'
p1735
I0
sS'tempHot'
p1736
I1
sS'tempGood'
p1737
I0
stp1738
Rp1739
(dp1740
g1028
g7
sbssI41
(dp1741
I0
g0
(g1015
g1016
(dp1742
g1731
g472
sg1732
I1
sg1733
I0
sg1734
I2
sg1735
I0
sg1736
I1
sg1737
I0
stp1743
Rp1744
(dp1745
g1028
g7
sbssI27
(dp1746
I0
g0
(g1015
g1016
(dp1747
g1731
g472
sg1732
I1
sg1733
I0
sg1734
I2
sg1735
I0
sg1736
I1
sg1737
I0
stp1748
Rp1749
(dp1750
g1028
g7
sbssI29
(dp1751
I0
g0
(g1015
g1016
(dp1752
g1731
g472
sg1732
I1
sg1733
I0
sg1734
I2
sg1735
I0
sg1736
I1
sg1737
I0
stp1753
Rp1754
(dp1755
g1028
g7
sbssI39
(dp1756
I0
g0
(g1015
g1016
(dp1757
g1731
g472
sg1732
I1
sg1733
I0
sg1734
I2
sg1735
I0
sg1736
I1
sg1737
I0
stp1758
Rp1759
(dp1760
g1028
g7
sbsssI38
(dp1761
I40
(dp1762
I0
g0
(g1015
g1016
(dp1763
S'loc'
p1764
g472
sS'noHXfreeze'
p1765
I1
sS'tempCold'
p1766
I0
sS'level'
p1767
I0
sS'trackfl'
p1768
I0
sS'tempHot'
p1769
I1
sS'tempGood'
p1770
I0
stp1771
Rp1772
(dp1773
g1028
g7
sbssI41
(dp1774
I0
g0
(g1015
g1016
(dp1775
g1764
g472
sg1765
I1
sg1766
I0
sg1767
I0
sg1768
I0
sg1769
I1
sg1770
I0
stp1776
Rp1777
(dp1778
g1028
g7
sbssI27
(dp1779
I0
g0
(g1015
g1016
(dp1780
g1764
g472
sg1765
I1
sg1766
I0
sg1767
I0
sg1768
I0
sg1769
I1
sg1770
I0
stp1781
Rp1782
(dp1783
g1028
g7
sbssI29
(dp1784
I0
g0
(g1015
g1016
(dp1785
g1764
g472
sg1765
I1
sg1766
I0
sg1767
I0
sg1768
I0
sg1769
I1
sg1770
I0
stp1786
Rp1787
(dp1788
g1028
g7
sbssI39
(dp1789
I0
g0
(g1015
g1016
(dp1790
g1764
g472
sg1765
I1
sg1766
I0
sg1767
I0
sg1768
I0
sg1769
I1
sg1770
I0
stp1791
Rp1792
(dp1793
g1028
g7
sbsssI39
(dp1794
I42
(dp1795
I0
g0
(g1015
g1016
(dp1796
S'loc'
p1797
g473
sS'noHXfreeze'
p1798
I0
sS'tempCold'
p1799
I0
sS'level'
p1800
I2
sS'trackfl'
p1801
I0
sS'tempHot'
p1802
I1
sS'tempGood'
p1803
I0
stp1804
Rp1805
(dp1806
g1028
g7
sbsssI40
(dp1807
I42
(dp1808
I0
g0
(g1015
g1016
(dp1809
S'loc'
p1810
g473
sS'noHXfreeze'
p1811
I0
sS'tempCold'
p1812
I0
sS'level'
p1813
I1
sS'trackfl'
p1814
I0
sS'tempHot'
p1815
I1
sS'tempGood'
p1816
I0
stp1817
Rp1818
(dp1819
g1028
g7
sbsssI41
(dp1820
I25
(dp1821
I0
g0
(g1015
g1016
(dp1822
S'loc'
p1823
g473
sS'noHXfreeze'
p1824
I0
sS'tempCold'
p1825
I0
sS'level'
p1826
I0
sS'trackfl'
p1827
I0
sS'tempHot'
p1828
I1
sS'tempGood'
p1829
I0
stp1830
Rp1831
(dp1832
g1028
g7
sbssI42
(dp1833
I0
g0
(g1015
g1016
(dp1834
g1823
g473
sg1824
I0
sg1825
I0
sg1826
I0
sg1827
I0
sg1828
I1
sg1829
I0
stp1835
Rp1836
(dp1837
g1028
g7
sbssI35
(dp1838
I0
g0
(g1015
g1016
(dp1839
g1823
g473
sg1824
I0
sg1825
I0
sg1826
I0
sg1827
I0
sg1828
I1
sg1829
I0
stp1840
Rp1841
(dp1842
g1028
g7
sbssI28
(dp1843
I0
g0
(g1015
g1016
(dp1844
g1823
g473
sg1824
I0
sg1825
I0
sg1826
I0
sg1827
I0
sg1828
I1
sg1829
I0
stp1845
Rp1846
(dp1847
g1028
g7
sbssI22
(dp1848
I0
g0
(g1015
g1016
(dp1849
g1823
g473
sg1824
I0
sg1825
I0
sg1826
I0
sg1827
I0
sg1828
I1
sg1829
I0
stp1850
Rp1851
(dp1852
g1028
g7
sbsssI42
(dp1853
I43
(dp1854
I0
g0
(g1015
g1016
(dp1855
S'loc'
p1856
g184
sS'noHXfreeze'
p1857
I0
sS'tempCold'
p1858
I0
sS'level'
p1859
I0
sS'trackfl'
p1860
I0
sS'tempHot'
p1861
I1
sS'tempGood'
p1862
I0
stp1863
Rp1864
(dp1865
g1028
g7
sbssI61
(dp1866
I0
g0
(g1015
g1016
(dp1867
g1856
g184
sg1857
I0
sg1858
I0
sg1859
I0
sg1860
I0
sg1861
I1
sg1862
I0
stp1868
Rp1869
(dp1870
g1028
g7
sbsssI43
(dp1871
I44
(dp1872
I0
g0
(g1015
g1016
(dp1873
S'loc'
p1874
g185
sS'noHXfreeze'
p1875
I0
sS'tempCold'
p1876
I0
sS'level'
p1877
I0
sS'trackfl'
p1878
I3
sS'tempHot'
p1879
I0
sS'tempGood'
p1880
I0
stp1881
Rp1882
(dp1883
g1028
g7
sbsssI44
(dp1884
I56
(dp1885
I0
g0
(g1015
g1016
(dp1886
S'loc'
p1887
g181
sS'noHXfreeze'
p1888
I1
sS'tempCold'
p1889
I0
sS'level'
p1890
I0
sS'trackfl'
p1891
I3
sS'tempHot'
p1892
I0
sS'tempGood'
p1893
I0
stp1894
Rp1895
(dp1896
g1028
g7
sbssI57
(dp1897
I0
g0
(g1015
g1016
(dp1898
g1887
g181
sg1888
I1
sg1889
I0
sg1890
I0
sg1891
I3
sg1892
I0
sg1893
I0
stp1899
Rp1900
(dp1901
g1028
g7
sbssI58
(dp1902
I0
g0
(g1015
g1016
(dp1903
g1887
g181
sg1888
I1
sg1889
I0
sg1890
I0
sg1891
I3
sg1892
I0
sg1893
I0
stp1904
Rp1905
(dp1906
g1028
g7
sbsssI45
(dp1907
I46
(dp1908
I0
g0
(g1015
g1016
(dp1909
S'loc'
p1910
g492
sS'noHXfreeze'
p1911
I0
sS'tempCold'
p1912
I0
sS'level'
p1913
I1
sS'trackfl'
p1914
I3
sS'tempHot'
p1915
I0
sS'tempGood'
p1916
I0
stp1917
Rp1918
(dp1919
g1028
g7
sbsssI46
(dp1920
I56
(dp1921
I0
g0
(g1015
g1016
(dp1922
S'loc'
p1923
g181
sS'noHXfreeze'
p1924
I1
sS'tempCold'
p1925
I0
sS'level'
p1926
I1
sS'trackfl'
p1927
I3
sS'tempHot'
p1928
I0
sS'tempGood'
p1929
I0
stp1930
Rp1931
(dp1932
g1028
g7
sbssI57
(dp1933
I0
g0
(g1015
g1016
(dp1934
g1923
g181
sg1924
I1
sg1925
I0
sg1926
I1
sg1927
I3
sg1928
I0
sg1929
I0
stp1935
Rp1936
(dp1937
g1028
g7
sbssI58
(dp1938
I0
g0
(g1015
g1016
(dp1939
g1923
g181
sg1924
I1
sg1925
I0
sg1926
I1
sg1927
I3
sg1928
I0
sg1929
I0
stp1940
Rp1941
(dp1942
g1028
g7
sbsssI47
(dp1943
I54
(dp1944
I0
g0
(g1015
g1016
(dp1945
S'loc'
p1946
g890
sS'noHXfreeze'
p1947
I0
sS'tempCold'
p1948
I0
sS'level'
p1949
I1
sS'trackfl'
p1950
I3
sS'tempHot'
p1951
I0
sS'tempGood'
p1952
I0
stp1953
Rp1954
(dp1955
g1028
g7
sbsssI48
(dp1956
I52
(dp1957
I0
g0
(g1015
g1016
(dp1958
S'loc'
p1959
g283
sS'noHXfreeze'
p1960
I0
sS'tempCold'
p1961
I0
sS'level'
p1962
I1
sS'trackfl'
p1963
I3
sS'tempHot'
p1964
I0
sS'tempGood'
p1965
I0
stp1966
Rp1967
(dp1968
g1028
g7
sbsssI49
(dp1969
I45
(dp1970
I0
g0
(g1015
g1016
(dp1971
S'loc'
p1972
g887
sS'noHXfreeze'
p1973
I0
sS'tempCold'
p1974
I0
sS'level'
p1975
I0
sS'trackfl'
p1976
I3
sS'tempHot'
p1977
I0
sS'tempGood'
p1978
I0
stp1979
Rp1980
(dp1981
g1028
g7
sbssI47
(dp1982
I0
g0
(g1015
g1016
(dp1983
g1972
g887
sg1973
I0
sg1974
I0
sg1975
I0
sg1976
I3
sg1977
I0
sg1978
I0
stp1984
Rp1985
(dp1986
g1028
g7
sbssI51
(dp1987
I0
g0
(g1015
g1016
(dp1988
g1972
g887
sg1973
I0
sg1974
I0
sg1975
I0
sg1976
I3
sg1977
I0
sg1978
I0
stp1989
Rp1990
(dp1991
g1028
g7
sbssI52
(dp1992
I0
g0
(g1015
g1016
(dp1993
g1972
g887
sg1973
I0
sg1974
I0
sg1975
I0
sg1976
I3
sg1977
I0
sg1978
I0
stp1994
Rp1995
(dp1996
g1028
g7
sbssI21
(dp1997
I0
g0
(g1015
g1016
(dp1998
g1972
g887
sg1973
I0
sg1974
I0
sg1975
I0
sg1976
I3
sg1977
I0
sg1978
I0
stp1999
Rp2000
(dp2001
g1028
g7
sbssI53
(dp2002
I0
g0
(g1015
g1016
(dp2003
g1972
g887
sg1973
I0
sg1974
I0
sg1975
I0
sg1976
I3
sg1977
I0
sg1978
I0
stp2004
Rp2005
(dp2006
g1028
g7
sbssI31
(dp2007
I0
g0
(g1015
g1016
(dp2008
g1972
g887
sg1973
I0
sg1974
I0
sg1975
I0
sg1976
I3
sg1977
I0
sg1978
I0
stp2009
Rp2010
(dp2011
g1028
g7
sbsssI50
(dp2012
I51
(dp2013
I0
g0
(g1015
g1016
(dp2014
S'loc'
p2015
g283
sS'noHXfreeze'
p2016
I0
sS'tempCold'
p2017
I0
sS'level'
p2018
I2
sS'trackfl'
p2019
I3
sS'tempHot'
p2020
I0
sS'tempGood'
p2021
I0
stp2022
Rp2023
(dp2024
g1028
g7
sbsssI51
(dp2025
I53
(dp2026
I0
g0
(g1015
g1016
(dp2027
S'loc'
p2028
g887
sS'noHXfreeze'
p2029
I0
sS'tempCold'
p2030
I0
sS'level'
p2031
I2
sS'trackfl'
p2032
I3
sS'tempHot'
p2033
I0
sS'tempGood'
p2034
I0
stp2035
Rp2036
(dp2037
g1028
g7
sbssI31
(dp2038
I0
g0
(g1015
g1016
(dp2039
g2028
g887
sg2029
I0
sg2030
I0
sg2031
I2
sg2032
I3
sg2033
I0
sg2034
I0
stp2040
Rp2041
(dp2042
g1028
g7
sbsssI52
(dp2043
I51
(dp2044
I0
g0
(g1015
g1016
(dp2045
S'loc'
p2046
g887
sS'noHXfreeze'
p2047
I0
sS'tempCold'
p2048
I0
sS'level'
p2049
I1
sS'trackfl'
p2050
I3
sS'tempHot'
p2051
I0
sS'tempGood'
p2052
I0
stp2053
Rp2054
(dp2055
g1028
g7
sbssI53
(dp2056
I0
g0
(g1015
g1016
(dp2057
g2046
g887
sg2047
I0
sg2048
I0
sg2049
I1
sg2050
I3
sg2051
I0
sg2052
I0
stp2058
Rp2059
(dp2060
g1028
g7
sbssI47
(dp2061
I0
g0
(g1015
g1016
(dp2062
g2046
g887
sg2047
I0
sg2048
I0
sg2049
I1
sg2050
I3
sg2051
I0
sg2052
I0
stp2063
Rp2064
(dp2065
g1028
g7
sbssI45
(dp2066
I0
g0
(g1015
g1016
(dp2067
g2046
g887
sg2047
I0
sg2048
I0
sg2049
I1
sg2050
I3
sg2051
I0
sg2052
I0
stp2068
Rp2069
(dp2070
g1028
g7
sbssI31
(dp2071
I0
g0
(g1015
g1016
(dp2072
g2046
g887
sg2047
I0
sg2048
I0
sg2049
I1
sg2050
I3
sg2051
I0
sg2052
I0
stp2073
Rp2074
(dp2075
g1028
g7
sbsssI53
(dp2076
I55
(dp2077
I0
g0
(g1015
g1016
(dp2078
S'loc'
p2079
g492
sS'noHXfreeze'
p2080
I0
sS'tempCold'
p2081
I0
sS'level'
p2082
I2
sS'trackfl'
p2083
I3
sS'tempHot'
p2084
I0
sS'tempGood'
p2085
I0
stp2086
Rp2087
(dp2088
g1028
g7
sbsssI54
(dp2089
I34
(dp2090
I0
g0
(g1015
g1016
(dp2091
S'loc'
p2092
g180
sS'noHXfreeze'
p2093
I0
sS'tempCold'
p2094
I0
sS'level'
p2095
I1
sS'trackfl'
p2096
I3
sS'tempHot'
p2097
I0
sS'tempGood'
p2098
I0
stp2099
Rp2100
(dp2101
g1028
g7
sbssI55
(dp2102
I0
g0
(g1015
g1016
(dp2103
g2092
g180
sg2093
I0
sg2094
I0
sg2095
I1
sg2096
I3
sg2097
I0
sg2098
I0
stp2104
Rp2105
(dp2106
g1028
g7
sbsssI55
(dp2107
I56
(dp2108
I0
g0
(g1015
g1016
(dp2109
S'loc'
p2110
g181
sS'noHXfreeze'
p2111
I1
sS'tempCold'
p2112
I0
sS'level'
p2113
I2
sS'trackfl'
p2114
I3
sS'tempHot'
p2115
I0
sS'tempGood'
p2116
I0
stp2117
Rp2118
(dp2119
g1028
g7
sbssI57
(dp2120
I0
g0
(g1015
g1016
(dp2121
g2110
g181
sg2111
I1
sg2112
I0
sg2113
I2
sg2114
I3
sg2115
I0
sg2116
I0
stp2122
Rp2123
(dp2124
g1028
g7
sbssI58
(dp2125
I0
g0
(g1015
g1016
(dp2126
g2110
g181
sg2111
I1
sg2112
I0
sg2113
I2
sg2114
I3
sg2115
I0
sg2116
I0
stp2127
Rp2128
(dp2129
g1028
g7
sbsssI56
(dp2130
I60
(dp2131
I0
g0
(g1015
g1016
(dp2132
S'loc'
p2133
g180
sS'noHXfreeze'
p2134
I0
sS'tempCold'
p2135
I0
sS'level'
p2136
I2
sS'trackfl'
p2137
I3
sS'tempHot'
p2138
I0
sS'tempGood'
p2139
I0
stp2140
Rp2141
(dp2142
g1028
g7
sbssI59
(dp2143
I0
g0
(g1015
g1016
(dp2144
g2133
g180
sg2134
I0
sg2135
I0
sg2136
I2
sg2137
I3
sg2138
I0
sg2139
I0
stp2145
Rp2146
(dp2147
g1028
g7
sbssI44
(dp2148
I0
g0
(g1015
g1016
(dp2149
g2133
g180
sg2134
I0
sg2135
I0
sg2136
I2
sg2137
I3
sg2138
I0
sg2139
I0
stp2150
Rp2151
(dp2152
g1028
g7
sbssI46
(dp2153
I0
g0
(g1015
g1016
(dp2154
g2133
g180
sg2134
I0
sg2135
I0
sg2136
I2
sg2137
I3
sg2138
I0
sg2139
I0
stp2155
Rp2156
(dp2157
g1028
g7
sbsssI57
(dp2158
I60
(dp2159
I0
g0
(g1015
g1016
(dp2160
S'loc'
p2161
g180
sS'noHXfreeze'
p2162
I0
sS'tempCold'
p2163
I0
sS'level'
p2164
I1
sS'trackfl'
p2165
I3
sS'tempHot'
p2166
I0
sS'tempGood'
p2167
I0
stp2168
Rp2169
(dp2170
g1028
g7
sbssI59
(dp2171
I0
g0
(g1015
g1016
(dp2172
g2161
g180
sg2162
I0
sg2163
I0
sg2164
I1
sg2165
I3
sg2166
I0
sg2167
I0
stp2173
Rp2174
(dp2175
g1028
g7
sbssI44
(dp2176
I0
g0
(g1015
g1016
(dp2177
g2161
g180
sg2162
I0
sg2163
I0
sg2164
I1
sg2165
I3
sg2166
I0
sg2167
I0
stp2178
Rp2179
(dp2180
g1028
g7
sbsssI58
(dp2181
I59
(dp2182
I0
g0
(g1015
g1016
(dp2183
S'loc'
p2184
g180
sS'noHXfreeze'
p2185
I0
sS'tempCold'
p2186
I0
sS'level'
p2187
I0
sS'trackfl'
p2188
I3
sS'tempHot'
p2189
I0
sS'tempGood'
p2190
I0
stp2191
Rp2192
(dp2193
g1028
g7
sbssI60
(dp2194
I0
g0
(g1015
g1016
(dp2195
g2184
g180
sg2185
I0
sg2186
I0
sg2187
I0
sg2188
I3
sg2189
I0
sg2190
I0
stp2196
Rp2197
(dp2198
g1028
g7
sbsssI59
(dp2199
I34
(dp2200
I0
g0
(g1015
g1016
(dp2201
S'loc'
p2202
g179
sS'noHXfreeze'
p2203
I0
sS'tempCold'
p2204
I0
sS'level'
p2205
I2
sS'trackfl'
p2206
I3
sS'tempHot'
p2207
I0
sS'tempGood'
p2208
I0
stp2209
Rp2210
(dp2211
g1028
g7
sbssI43
(dp2212
I0
g0
(g1015
g1016
(dp2213
g2202
g179
sg2203
I0
sg2204
I0
sg2205
I2
sg2206
I3
sg2207
I0
sg2208
I0
stp2214
Rp2215
(dp2216
g1028
g7
sbssI54
(dp2217
I0
g0
(g1015
g1016
(dp2218
g2202
g179
sg2203
I0
sg2204
I0
sg2205
I2
sg2206
I3
sg2207
I0
sg2208
I0
stp2219
Rp2220
(dp2221
g1028
g7
sbssI25
(dp2222
I0
g0
(g1015
g1016
(dp2223
g2202
g179
sg2203
I0
sg2204
I0
sg2205
I2
sg2206
I3
sg2207
I0
sg2208
I0
stp2224
Rp2225
(dp2226
g1028
g7
sbssI28
(dp2227
I0
g0
(g1015
g1016
(dp2228
g2202
g179
sg2203
I0
sg2204
I0
sg2205
I2
sg2206
I3
sg2207
I0
sg2208
I0
stp2229
Rp2230
(dp2231
g1028
g7
sbssI61
(dp2232
I0
g0
(g1015
g1016
(dp2233
g2202
g179
sg2203
I0
sg2204
I0
sg2205
I2
sg2206
I3
sg2207
I0
sg2208
I0
stp2234
Rp2235
(dp2236
g1028
g7
sbssI62
(dp2237
I0
g0
(g1015
g1016
(dp2238
g2202
g179
sg2203
I0
sg2204
I0
sg2205
I2
sg2206
I3
sg2207
I0
sg2208
I0
stp2239
Rp2240
(dp2241
g1028
g7
sbsssI60
(dp2242
I43
(dp2243
I0
g0
(g1015
g1016
(dp2244
S'loc'
p2245
g179
sS'noHXfreeze'
p2246
I0
sS'tempCold'
p2247
I0
sS'level'
p2248
I1
sS'trackfl'
p2249
I3
sS'tempHot'
p2250
I0
sS'tempGood'
p2251
I0
stp2252
Rp2253
(dp2254
g1028
g7
sbssI61
(dp2255
I0
g0
(g1015
g1016
(dp2256
g2245
g179
sg2246
I0
sg2247
I0
sg2248
I1
sg2249
I3
sg2250
I0
sg2251
I0
stp2257
Rp2258
(dp2259
g1028
g7
sbssI62
(dp2260
I0
g0
(g1015
g1016
(dp2261
g2245
g179
sg2246
I0
sg2247
I0
sg2248
I1
sg2249
I3
sg2250
I0
sg2251
I0
stp2262
Rp2263
(dp2264
g1028
g7
sbsssI61
(dp2265
I32
(dp2266
I0
g0
(g1015
g1016
(dp2267
S'loc'
p2268
g179
sS'noHXfreeze'
p2269
I0
sS'tempCold'
p2270
I0
sS'level'
p2271
I0
sS'trackfl'
p2272
I3
sS'tempHot'
p2273
I0
sS'tempGood'
p2274
I0
stp2275
Rp2276
(dp2277
g1028
g7
sbssI33
(dp2278
I0
g0
(g1015
g1016
(dp2279
g2268
g179
sg2269
I0
sg2270
I0
sg2271
I0
sg2272
I3
sg2273
I0
sg2274
I0
stp2280
Rp2281
(dp2282
g1028
g7
sbssI34
(dp2283
I0
g0
(g1015
g1016
(dp2284
g2268
g179
sg2269
I0
sg2270
I0
sg2271
I0
sg2272
I3
sg2273
I0
sg2274
I0
stp2285
Rp2286
(dp2287
g1028
g7
sbssI62
(dp2288
I0
g0
(g1015
g1016
(dp2289
g2268
g179
sg2269
I0
sg2270
I0
sg2271
I0
sg2272
I3
sg2273
I0
sg2274
I0
stp2290
Rp2291
(dp2292
g1028
g7
sbssI54
(dp2293
I0
g0
(g1015
g1016
(dp2294
g2268
g179
sg2269
I0
sg2270
I0
sg2271
I0
sg2272
I3
sg2273
I0
sg2274
I0
stp2295
Rp2296
(dp2297
g1028
g7
sbsssI62
(dp2298
I68
(dp2299
I0
g0
(g1015
g1016
(dp2300
S'loc'
p2301
g180
sS'noHXfreeze'
p2302
I0
sS'tempCold'
p2303
I0
sS'level'
p2304
I0
sS'trackfl'
p2305
I3
sS'tempHot'
p2306
I0
sS'tempGood'
p2307
I0
stp2308
Rp2309
(dp2310
g1028
g7
sbssI46
(dp2311
I0
g0
(g1015
g1016
(dp2312
g2301
g180
sg2302
I0
sg2303
I0
sg2304
I0
sg2305
I3
sg2306
I0
sg2307
I0
stp2313
Rp2314
(dp2315
g1028
g7
sbssI55
(dp2316
I0
g0
(g1015
g1016
(dp2317
g2301
g180
sg2302
I0
sg2303
I0
sg2304
I0
sg2305
I3
sg2306
I0
sg2307
I0
stp2318
Rp2319
(dp2320
g1028
g7
sbsssI63
(dp2321
I66
(dp2322
I0
g0
(g1015
g1016
(dp2323
S'loc'
p2324
g283
sS'noHXfreeze'
p2325
I0
sS'tempCold'
p2326
I0
sS'level'
p2327
I2
sS'trackfl'
p2328
I3
sS'tempHot'
p2329
I0
sS'tempGood'
p2330
I0
stp2331
Rp2332
(dp2333
g1028
g7
sbssI67
(dp2334
I0
g0
(g1015
g1016
(dp2335
g2324
g283
sg2325
I0
sg2326
I0
sg2327
I2
sg2328
I3
sg2329
I0
sg2330
I0
stp2336
Rp2337
(dp2338
g1028
g7
sbsssI64
(dp2339
I66
(dp2340
I0
g0
(g1015
g1016
(dp2341
S'loc'
p2342
g283
sS'noHXfreeze'
p2343
I0
sS'tempCold'
p2344
I0
sS'level'
p2345
I1
sS'trackfl'
p2346
I3
sS'tempHot'
p2347
I0
sS'tempGood'
p2348
I0
stp2349
Rp2350
(dp2351
g1028
g7
sbssI67
(dp2352
I0
g0
(g1015
g1016
(dp2353
g2342
g283
sg2343
I0
sg2344
I0
sg2345
I1
sg2346
I3
sg2347
I0
sg2348
I0
stp2354
Rp2355
(dp2356
g1028
g7
sbsssI65
(dp2357
I66
(dp2358
I0
g0
(g1015
g1016
(dp2359
S'loc'
p2360
g283
sS'noHXfreeze'
p2361
I0
sS'tempCold'
p2362
I0
sS'level'
p2363
I0
sS'trackfl'
p2364
I3
sS'tempHot'
p2365
I0
sS'tempGood'
p2366
I0
stp2367
Rp2368
(dp2369
g1028
g7
sbssI67
(dp2370
I0
g0
(g1015
g1016
(dp2371
g2360
g283
sg2361
I0
sg2362
I0
sg2363
I0
sg2364
I3
sg2365
I0
sg2366
I0
stp2372
Rp2373
(dp2374
g1028
g7
sbsssI66
(dp2375
I68
(dp2376
I0
g0
(g1015
g1016
(dp2377
S'loc'
p2378
g887
sS'noHXfreeze'
p2379
I0
sS'tempCold'
p2380
I0
sS'level'
p2381
I2
sS'trackfl'
p2382
I3
sS'tempHot'
p2383
I0
sS'tempGood'
p2384
I0
stp2385
Rp2386
(dp2387
g1028
g7
sbssI70
(dp2388
I0
g0
(g1015
g1016
(dp2389
g2378
g887
sg2379
I0
sg2380
I0
sg2381
I2
sg2382
I3
sg2383
I0
sg2384
I0
stp2390
Rp2391
(dp2392
g1028
g7
sbssI45
(dp2393
I0
g0
(g1015
g1016
(dp2394
g2378
g887
sg2379
I0
sg2380
I0
sg2381
I2
sg2382
I3
sg2383
I0
sg2384
I0
stp2395
Rp2396
(dp2397
g1028
g7
sbssI47
(dp2398
I0
g0
(g1015
g1016
(dp2399
g2378
g887
sg2379
I0
sg2380
I0
sg2381
I2
sg2382
I3
sg2383
I0
sg2384
I0
stp2400
Rp2401
(dp2402
g1028
g7
sbssI49
(dp2403
I0
g0
(g1015
g1016
(dp2404
g2378
g887
sg2379
I0
sg2380
I0
sg2381
I2
sg2382
I3
sg2383
I0
sg2384
I0
stp2405
Rp2406
(dp2407
g1028
g7
sbssI52
(dp2408
I0
g0
(g1015
g1016
(dp2409
g2378
g887
sg2379
I0
sg2380
I0
sg2381
I2
sg2382
I3
sg2383
I0
sg2384
I0
stp2410
Rp2411
(dp2412
g1028
g7
sbsssI67
(dp2413
I49
(dp2414
I0
g0
(g1015
g1016
(dp2415
S'loc'
p2416
g887
sS'noHXfreeze'
p2417
I0
sS'tempCold'
p2418
I0
sS'level'
p2419
I1
sS'trackfl'
p2420
I3
sS'tempHot'
p2421
I0
sS'tempGood'
p2422
I0
stp2423
Rp2424
(dp2425
g1028
g7
sbssI68
(dp2426
I0
g0
(g1015
g1016
(dp2427
g2416
g887
sg2417
I0
sg2418
I0
sg2419
I1
sg2420
I3
sg2421
I0
sg2422
I0
stp2428
Rp2429
(dp2430
g1028
g7
sbssI70
(dp2431
I0
g0
(g1015
g1016
(dp2432
g2416
g887
sg2417
I0
sg2418
I0
sg2419
I1
sg2420
I3
sg2421
I0
sg2422
I0
stp2433
Rp2434
(dp2435
g1028
g7
sbsssI68
(dp2436
I49
(dp2437
I0
g0
(g1015
g1016
(dp2438
S'loc'
p2439
g890
sS'noHXfreeze'
p2440
I0
sS'tempCold'
p2441
I0
sS'level'
p2442
I0
sS'trackfl'
p2443
I3
sS'tempHot'
p2444
I0
sS'tempGood'
p2445
I0
stp2446
Rp2447
(dp2448
g1028
g7
sbssI70
(dp2449
I0
g0
(g1015
g1016
(dp2450
g2439
g890
sg2440
I0
sg2441
I0
sg2442
I0
sg2443
I3
sg2444
I0
sg2445
I0
stp2451
Rp2452
(dp2453
g1028
g7
sbsssI69
(dp2454
I80
(dp2455
I0
g0
(g1015
g1016
(dp2456
S'loc'
p2457
g883
sS'noHXfreeze'
p2458
I0
sS'tempCold'
p2459
I0
sS'level'
p2460
I1
sS'trackfl'
p2461
I3
sS'tempHot'
p2462
I0
sS'tempGood'
p2463
I0
stp2464
Rp2465
(dp2466
g1028
g7
sbssI21
(dp2467
I0
g0
(g1015
g1016
(dp2468
g2457
g883
sg2458
I0
sg2459
I0
sg2460
I1
sg2461
I3
sg2462
I0
sg2463
I0
stp2469
Rp2470
(dp2471
g1028
g7
sbssI71
(dp2472
I0
g0
(g1015
g1016
(dp2473
g2457
g883
sg2458
I0
sg2459
I0
sg2460
I1
sg2461
I3
sg2462
I0
sg2463
I0
stp2474
Rp2475
(dp2476
g1028
g7
sbsssI70
(dp2477
I71
(dp2478
I0
g0
(g1015
g1016
(dp2479
S'loc'
p2480
g889
sS'noHXfreeze'
p2481
I0
sS'tempCold'
p2482
I0
sS'level'
p2483
I0
sS'trackfl'
p2484
I3
sS'tempHot'
p2485
I0
sS'tempGood'
p2486
I0
stp2487
Rp2488
(dp2489
g1028
g7
sbsssI71
(dp2490
I64
(dp2491
I0
g0
(g1015
g1016
(dp2492
S'loc'
p2493
g33
sS'noHXfreeze'
p2494
I1
sS'tempCold'
p2495
I0
sS'level'
p2496
I0
sS'trackfl'
p2497
I3
sS'tempHot'
p2498
I0
sS'tempGood'
p2499
I0
stp2500
Rp2501
(dp2502
g1028
g7
sbssI65
(dp2503
I0
g0
(g1015
g1016
(dp2504
g2493
g33
sg2494
I1
sg2495
I0
sg2496
I0
sg2497
I3
sg2498
I0
sg2499
I0
stp2505
Rp2506
(dp2507
g1028
g7
sbssI69
(dp2508
I0
g0
(g1015
g1016
(dp2509
g2493
g33
sg2494
I1
sg2495
I0
sg2496
I0
sg2497
I3
sg2498
I0
sg2499
I0
stp2510
Rp2511
(dp2512
g1028
g7
sbssI73
(dp2513
I0
g0
(g1015
g1016
(dp2514
g2493
g33
sg2494
I1
sg2495
I0
sg2496
I0
sg2497
I3
sg2498
I0
sg2499
I0
stp2515
Rp2516
(dp2517
g1028
g7
sbssI79
(dp2518
I0
g0
(g1015
g1016
(dp2519
g2493
g33
sg2494
I1
sg2495
I0
sg2496
I0
sg2497
I3
sg2498
I0
sg2499
I0
stp2520
Rp2521
(dp2522
g1028
g7
sbssI63
(dp2523
I0
g0
(g1015
g1016
(dp2524
g2493
g33
sg2494
I1
sg2495
I0
sg2496
I0
sg2497
I3
sg2498
I0
sg2499
I0
stp2525
Rp2526
(dp2527
g1028
g7
sbsssI72
(dp2528
I64
(dp2529
I0
g0
(g1015
g1016
(dp2530
S'loc'
p2531
g33
sS'noHXfreeze'
p2532
I1
sS'tempCold'
p2533
I0
sS'level'
p2534
I1
sS'trackfl'
p2535
I3
sS'tempHot'
p2536
I0
sS'tempGood'
p2537
I0
stp2538
Rp2539
(dp2540
g1028
g7
sbssI65
(dp2541
I0
g0
(g1015
g1016
(dp2542
g2531
g33
sg2532
I1
sg2533
I0
sg2534
I1
sg2535
I3
sg2536
I0
sg2537
I0
stp2543
Rp2544
(dp2545
g1028
g7
sbssI69
(dp2546
I0
g0
(g1015
g1016
(dp2547
g2531
g33
sg2532
I1
sg2533
I0
sg2534
I1
sg2535
I3
sg2536
I0
sg2537
I0
stp2548
Rp2549
(dp2550
g1028
g7
sbssI73
(dp2551
I0
g0
(g1015
g1016
(dp2552
g2531
g33
sg2532
I1
sg2533
I0
sg2534
I1
sg2535
I3
sg2536
I0
sg2537
I0
stp2553
Rp2554
(dp2555
g1028
g7
sbssI79
(dp2556
I0
g0
(g1015
g1016
(dp2557
g2531
g33
sg2532
I1
sg2533
I0
sg2534
I1
sg2535
I3
sg2536
I0
sg2537
I0
stp2558
Rp2559
(dp2560
g1028
g7
sbssI63
(dp2561
I0
g0
(g1015
g1016
(dp2562
g2531
g33
sg2532
I1
sg2533
I0
sg2534
I1
sg2535
I3
sg2536
I0
sg2537
I0
stp2563
Rp2564
(dp2565
g1028
g7
sbsssI73
(dp2566
I74
(dp2567
I0
g0
(g1015
g1016
(dp2568
S'loc'
p2569
g883
sS'noHXfreeze'
p2570
I0
sS'tempCold'
p2571
I0
sS'level'
p2572
I0
sS'trackfl'
p2573
I3
sS'tempHot'
p2574
I0
sS'tempGood'
p2575
I0
stp2576
Rp2577
(dp2578
g1028
g7
sbsssI74
(dp2579
g1330
(dp2580
I0
g0
(g1015
g1016
(dp2581
S'loc'
p2582
g631
sS'noHXfreeze'
p2583
I0
sS'tempCold'
p2584
I0
sS'level'
p2585
I1
sS'trackfl'
p2586
I1
sS'tempHot'
p2587
I0
sS'tempGood'
p2588
I1
stp2589
Rp2590
(dp2591
g1028
g7
sbssI77
(dp2592
I0
g0
(g1015
g1016
(dp2593
g2582
g631
sg2583
I0
sg2584
I0
sg2585
I1
sg2586
I1
sg2587
I0
sg2588
I1
stp2594
Rp2595
(dp2596
g1028
g7
sbsssI75
(dp2597
I76
(dp2598
I0
g0
(g1015
g1016
(dp2599
S'loc'
p2600
g631
sS'noHXfreeze'
p2601
I0
sS'tempCold'
p2602
I0
sS'level'
p2603
I2
sS'trackfl'
p2604
I1
sS'tempHot'
p2605
I0
sS'tempGood'
p2606
I1
stp2607
Rp2608
(dp2609
g1028
g7
sbsssI76
(dp2610
I50
(dp2611
I0
g0
(g1015
g1016
(dp2612
S'loc'
p2613
g883
sS'noHXfreeze'
p2614
I0
sS'tempCold'
p2615
I0
sS'level'
p2616
I2
sS'trackfl'
p2617
I3
sS'tempHot'
p2618
I0
sS'tempGood'
p2619
I0
stp2620
Rp2621
(dp2622
g1028
g7
sbssI78
(dp2623
I0
g0
(g1015
g1016
(dp2624
g2613
g883
sg2614
I0
sg2615
I0
sg2616
I2
sg2617
I3
sg2618
I0
sg2619
I0
stp2625
Rp2626
(dp2627
g1028
g7
sbssI87
(dp2628
I0
g0
(g1015
g1016
(dp2629
g2613
g883
sg2614
I0
sg2615
I0
sg2616
I2
sg2617
I3
sg2618
I0
sg2619
I0
stp2630
Rp2631
(dp2632
g1028
g7
sbsssI77
(dp2633
I48
(dp2634
I0
g0
(g1015
g1016
(dp2635
S'loc'
p2636
g883
sS'noHXfreeze'
p2637
I0
sS'tempCold'
p2638
I0
sS'level'
p2639
I1
sS'trackfl'
p2640
I3
sS'tempHot'
p2641
I0
sS'tempGood'
p2642
I0
stp2643
Rp2644
(dp2645
g1028
g7
sbssI72
(dp2646
I0
g0
(g1015
g1016
(dp2647
g2636
g883
sg2637
I0
sg2638
I0
sg2639
I1
sg2640
I3
sg2641
I0
sg2642
I0
stp2648
Rp2649
(dp2650
g1028
g7
sbssI50
(dp2651
I0
g0
(g1015
g1016
(dp2652
g2636
g883
sg2637
I0
sg2638
I0
sg2639
I1
sg2640
I3
sg2641
I0
sg2642
I0
stp2653
Rp2654
(dp2655
g1028
g7
sbssI76
(dp2656
I0
g0
(g1015
g1016
(dp2657
g2636
g883
sg2637
I0
sg2638
I0
sg2639
I1
sg2640
I3
sg2641
I0
sg2642
I0
stp2658
Rp2659
(dp2660
g1028
g7
sbssI78
(dp2661
I0
g0
(g1015
g1016
(dp2662
g2636
g883
sg2637
I0
sg2638
I0
sg2639
I1
sg2640
I3
sg2641
I0
sg2642
I0
stp2663
Rp2664
(dp2665
g1028
g7
sbsssI78
(dp2666
I64
(dp2667
I0
g0
(g1015
g1016
(dp2668
S'loc'
p2669
g33
sS'noHXfreeze'
p2670
I1
sS'tempCold'
p2671
I0
sS'level'
p2672
I2
sS'trackfl'
p2673
I3
sS'tempHot'
p2674
I0
sS'tempGood'
p2675
I0
stp2676
Rp2677
(dp2678
g1028
g7
sbssI65
(dp2679
I0
g0
(g1015
g1016
(dp2680
g2669
g33
sg2670
I1
sg2671
I0
sg2672
I2
sg2673
I3
sg2674
I0
sg2675
I0
stp2681
Rp2682
(dp2683
g1028
g7
sbssI69
(dp2684
I0
g0
(g1015
g1016
(dp2685
g2669
g33
sg2670
I1
sg2671
I0
sg2672
I2
sg2673
I3
sg2674
I0
sg2675
I0
stp2686
Rp2687
(dp2688
g1028
g7
sbssI73
(dp2689
I0
g0
(g1015
g1016
(dp2690
g2669
g33
sg2670
I1
sg2671
I0
sg2672
I2
sg2673
I3
sg2674
I0
sg2675
I0
stp2691
Rp2692
(dp2693
g1028
g7
sbssI79
(dp2694
I0
g0
(g1015
g1016
(dp2695
g2669
g33
sg2670
I1
sg2671
I0
sg2672
I2
sg2673
I3
sg2674
I0
sg2675
I0
stp2696
Rp2697
(dp2698
g1028
g7
sbssI63
(dp2699
I0
g0
(g1015
g1016
(dp2700
g2669
g33
sg2670
I1
sg2671
I0
sg2672
I2
sg2673
I3
sg2674
I0
sg2675
I0
stp2701
Rp2702
(dp2703
g1028
g7
sbsssI79
(dp2704
I80
(dp2705
I0
g0
(g1015
g1016
(dp2706
S'loc'
p2707
g883
sS'noHXfreeze'
p2708
I0
sS'tempCold'
p2709
I0
sS'level'
p2710
I2
sS'trackfl'
p2711
I3
sS'tempHot'
p2712
I0
sS'tempGood'
p2713
I0
stp2714
Rp2715
(dp2716
g1028
g7
sbssI71
(dp2717
I0
g0
(g1015
g1016
(dp2718
g2707
g883
sg2708
I0
sg2709
I0
sg2710
I2
sg2711
I3
sg2712
I0
sg2713
I0
stp2719
Rp2720
(dp2721
g1028
g7
sbssI72
(dp2722
I0
g0
(g1015
g1016
(dp2723
g2707
g883
sg2708
I0
sg2709
I0
sg2710
I2
sg2711
I3
sg2712
I0
sg2713
I0
stp2724
Rp2725
(dp2726
g1028
g7
sbssI74
(dp2727
I0
g0
(g1015
g1016
(dp2728
g2707
g883
sg2708
I0
sg2709
I0
sg2710
I2
sg2711
I3
sg2712
I0
sg2713
I0
stp2729
Rp2730
(dp2731
g1028
g7
sbssI77
(dp2732
I0
g0
(g1015
g1016
(dp2733
g2707
g883
sg2708
I0
sg2709
I0
sg2710
I2
sg2711
I3
sg2712
I0
sg2713
I0
stp2734
Rp2735
(dp2736
g1028
g7
sbssI48
(dp2737
I0
g0
(g1015
g1016
(dp2738
g2707
g883
sg2708
I0
sg2709
I0
sg2710
I2
sg2711
I3
sg2712
I0
sg2713
I0
stp2739
Rp2740
(dp2741
g1028
g7
sbssI81
(dp2742
I0
g0
(g1015
g1016
(dp2743
g2707
g883
sg2708
I0
sg2709
I0
sg2710
I2
sg2711
I3
sg2712
I0
sg2713
I0
stp2744
Rp2745
(dp2746
g1028
g7
sbssI20
(dp2747
I0
g0
(g1015
g1016
(dp2748
g2707
g883
sg2708
I0
sg2709
I0
sg2710
I2
sg2711
I3
sg2712
I0
sg2713
I0
stp2749
Rp2750
(dp2751
g1028
g7
sbssI21
(dp2752
I0
g0
(g1015
g1016
(dp2753
g2707
g883
sg2708
I0
sg2709
I0
sg2710
I2
sg2711
I3
sg2712
I0
sg2713
I0
stp2754
Rp2755
(dp2756
g1028
g7
sbsssI80
(dp2757
I72
(dp2758
I0
g0
(g1015
g1016
(dp2759
S'loc'
p2760
g883
sS'noHXfreeze'
p2761
I0
sS'tempCold'
p2762
I0
sS'level'
p2763
I0
sS'trackfl'
p2764
I3
sS'tempHot'
p2765
I0
sS'tempGood'
p2766
I0
stp2767
Rp2768
(dp2769
g1028
g7
sbssI75
(dp2770
I0
g0
(g1015
g1016
(dp2771
g2760
g883
sg2761
I0
sg2762
I0
sg2763
I0
sg2764
I3
sg2765
I0
sg2766
I0
stp2772
Rp2773
(dp2774
g1028
g7
sbssI76
(dp2775
I0
g0
(g1015
g1016
(dp2776
g2760
g883
sg2761
I0
sg2762
I0
sg2763
I0
sg2764
I3
sg2765
I0
sg2766
I0
stp2777
Rp2778
(dp2779
g1028
g7
sbssI77
(dp2780
I0
g0
(g1015
g1016
(dp2781
g2760
g883
sg2761
I0
sg2762
I0
sg2763
I0
sg2764
I3
sg2765
I0
sg2766
I0
stp2782
Rp2783
(dp2784
g1028
g7
sbssI78
(dp2785
I0
g0
(g1015
g1016
(dp2786
g2760
g883
sg2761
I0
sg2762
I0
sg2763
I0
sg2764
I3
sg2765
I0
sg2766
I0
stp2787
Rp2788
(dp2789
g1028
g7
sbssI48
(dp2790
I0
g0
(g1015
g1016
(dp2791
g2760
g883
sg2761
I0
sg2762
I0
sg2763
I0
sg2764
I3
sg2765
I0
sg2766
I0
stp2792
Rp2793
(dp2794
g1028
g7
sbssI81
(dp2795
I0
g0
(g1015
g1016
(dp2796
g2760
g883
sg2761
I0
sg2762
I0
sg2763
I0
sg2764
I3
sg2765
I0
sg2766
I0
stp2797
Rp2798
(dp2799
g1028
g7
sbssI50
(dp2800
I0
g0
(g1015
g1016
(dp2801
g2760
g883
sg2761
I0
sg2762
I0
sg2763
I0
sg2764
I3
sg2765
I0
sg2766
I0
stp2802
Rp2803
(dp2804
g1028
g7
sbssI20
(dp2805
I0
g0
(g1015
g1016
(dp2806
g2760
g883
sg2761
I0
sg2762
I0
sg2763
I0
sg2764
I3
sg2765
I0
sg2766
I0
stp2807
Rp2808
(dp2809
g1028
g7
sbssI86
(dp2810
I0
g0
(g1015
g1016
(dp2811
g2760
g883
sg2761
I0
sg2762
I0
sg2763
I0
sg2764
I3
sg2765
I0
sg2766
I0
stp2812
Rp2813
(dp2814
g1028
g7
sbssI87
(dp2815
I0
g0
(g1015
g1016
(dp2816
g2760
g883
sg2761
I0
sg2762
I0
sg2763
I0
sg2764
I3
sg2765
I0
sg2766
I0
stp2817
Rp2818
(dp2819
g1028
g7
sbsssI81
(dp2820
I90
(dp2821
I0
g0
(g1015
g1016
(dp2822
S'loc'
p2823
g631
sS'noHXfreeze'
p2824
I0
sS'tempCold'
p2825
I0
sS'level'
p2826
I0
sS'trackfl'
p2827
I1
sS'tempHot'
p2828
I0
sS'tempGood'
p2829
I1
stp2830
Rp2831
(dp2832
g1028
g7
sbsssI82
(dp2833
I83
(dp2834
I0
g0
(g1015
g1016
(dp2835
S'loc'
p2836
g368
sS'noHXfreeze'
p2837
I0
sS'tempCold'
p2838
I0
sS'level'
p2839
I2
sS'trackfl'
p2840
I1
sS'tempHot'
p2841
I0
sS'tempGood'
p2842
I1
stp2843
Rp2844
(dp2845
g1028
g7
sbsssI83
(dp2846
I84
(dp2847
I0
g0
(g1015
g1016
(dp2848
S'loc'
p2849
g371
sS'noHXfreeze'
p2850
I0
sS'tempCold'
p2851
I0
sS'level'
p2852
I2
sS'trackfl'
p2853
I1
sS'tempHot'
p2854
I0
sS'tempGood'
p2855
I1
stp2856
Rp2857
(dp2858
g1028
g7
sbsssI84
(dp2859
I85
(dp2860
I0
g0
(g1015
g1016
(dp2861
S'loc'
p2862
g345
sS'noHXfreeze'
p2863
I0
sS'tempCold'
p2864
I0
sS'level'
p2865
I2
sS'trackfl'
p2866
I1
sS'tempHot'
p2867
I0
sS'tempGood'
p2868
I1
stp2869
Rp2870
(dp2871
g1028
g7
sbsssI85
(dp2872
I75
(dp2873
I0
g0
(g1015
g1016
(dp2874
S'loc'
p2875
g632
sS'noHXfreeze'
p2876
I0
sS'tempCold'
p2877
I0
sS'level'
p2878
I2
sS'trackfl'
p2879
I1
sS'tempHot'
p2880
I0
sS'tempGood'
p2881
I1
stp2882
Rp2883
(dp2884
g1028
g7
sbssI86
(dp2885
I0
g0
(g1015
g1016
(dp2886
g2875
g632
sg2876
I0
sg2877
I0
sg2878
I2
sg2879
I1
sg2880
I0
sg2881
I1
stp2887
Rp2888
(dp2889
g1028
g7
sbsssI86
(dp2890
I88
(dp2891
I0
g0
(g1015
g1016
(dp2892
S'loc'
p2893
g634
sS'noHXfreeze'
p2894
I1
sS'tempCold'
p2895
I0
sS'level'
p2896
I2
sS'trackfl'
p2897
I1
sS'tempHot'
p2898
I0
sS'tempGood'
p2899
I1
stp2900
Rp2901
(dp2902
g1028
g7
sbssI89
(dp2903
I0
g0
(g1015
g1016
(dp2904
g2893
g634
sg2894
I1
sg2895
I0
sg2896
I2
sg2897
I1
sg2898
I0
sg2899
I1
stp2905
Rp2906
(dp2907
g1028
g7
sbsssI87
(dp2908
I88
(dp2909
I0
g0
(g1015
g1016
(dp2910
S'loc'
p2911
g634
sS'noHXfreeze'
p2912
I1
sS'tempCold'
p2913
I0
sS'level'
p2914
I1
sS'trackfl'
p2915
I1
sS'tempHot'
p2916
I0
sS'tempGood'
p2917
I1
stp2918
Rp2919
(dp2920
g1028
g7
sbssI89
(dp2921
I0
g0
(g1015
g1016
(dp2922
g2911
g634
sg2912
I1
sg2913
I0
sg2914
I1
sg2915
I1
sg2916
I0
sg2917
I1
stp2923
Rp2924
(dp2925
g1028
g7
sbssg1330
(dp2926
I0
g0
(g1015
g1016
(dp2927
g2911
g634
sg2912
I1
sg2913
I0
sg2914
I1
sg2915
I1
sg2916
I0
sg2917
I1
stp2928
Rp2929
(dp2930
g1028
g7
sbsssI88
(dp2931
I18
(dp2932
I0
g0
(g1015
g1016
(dp2933
S'loc'
p2934
g632
sS'noHXfreeze'
p2935
I0
sS'tempCold'
p2936
I0
sS'level'
p2937
I2
sS'trackfl'
p2938
I1
sS'tempHot'
p2939
I0
sS'tempGood'
p2940
I1
stp2941
Rp2942
(dp2943
g1028
g7
sbssI91
(dp2944
I0
g0
(g1015
g1016
(dp2945
g2934
g632
sg2935
I0
sg2936
I0
sg2937
I2
sg2938
I1
sg2939
I0
sg2940
I1
stp2946
Rp2947
(dp2948
g1028
g7
sbssI90
(dp2949
I0
g0
(g1015
g1016
(dp2950
g2934
g632
sg2935
I0
sg2936
I0
sg2937
I2
sg2938
I1
sg2939
I0
sg2940
I1
stp2951
Rp2952
(dp2953
g1028
g7
sbsssI89
(dp2954
g1330
(dp2955
I0
g0
(g1015
g1016
(dp2956
S'loc'
p2957
g632
sS'noHXfreeze'
p2958
I0
sS'tempCold'
p2959
I0
sS'level'
p2960
I1
sS'trackfl'
p2961
I1
sS'tempHot'
p2962
I0
sS'tempGood'
p2963
I1
stp2964
Rp2965
(dp2966
g1028
g7
sbssI74
(dp2967
I0
g0
(g1015
g1016
(dp2968
g2957
g632
sg2958
I0
sg2959
I0
sg2960
I1
sg2961
I1
sg2962
I0
sg2963
I1
stp2969
Rp2970
(dp2971
g1028
g7
sbssI75
(dp2972
I0
g0
(g1015
g1016
(dp2973
g2957
g632
sg2958
I0
sg2959
I0
sg2960
I1
sg2961
I1
sg2962
I0
sg2963
I1
stp2974
Rp2975
(dp2976
g1028
g7
sbssI81
(dp2977
I0
g0
(g1015
g1016
(dp2978
g2957
g632
sg2958
I0
sg2959
I0
sg2960
I1
sg2961
I1
sg2962
I0
sg2963
I1
stp2979
Rp2980
(dp2981
g1028
g7
sbssI18
(dp2982
I0
g0
(g1015
g1016
(dp2983
g2957
g632
sg2958
I0
sg2959
I0
sg2960
I1
sg2961
I1
sg2962
I0
sg2963
I1
stp2984
Rp2985
(dp2986
g1028
g7
sbssI84
(dp2987
I0
g0
(g1015
g1016
(dp2988
g2957
g632
sg2958
I0
sg2959
I0
sg2960
I1
sg2961
I1
sg2962
I0
sg2963
I1
stp2989
Rp2990
(dp2991
g1028
g7
sbssI85
(dp2992
I0
g0
(g1015
g1016
(dp2993
g2957
g632
sg2958
I0
sg2959
I0
sg2960
I1
sg2961
I1
sg2962
I0
sg2963
I1
stp2994
Rp2995
(dp2996
g1028
g7
sbssI86
(dp2997
I0
g0
(g1015
g1016
(dp2998
g2957
g632
sg2958
I0
sg2959
I0
sg2960
I1
sg2961
I1
sg2962
I0
sg2963
I1
stp2999
Rp3000
(dp3001
g1028
g7
sbssI87
(dp3002
I0
g0
(g1015
g1016
(dp3003
g2957
g632
sg2958
I0
sg2959
I0
sg2960
I1
sg2961
I1
sg2962
I0
sg2963
I1
stp3004
Rp3005
(dp3006
g1028
g7
sbssI20
(dp3007
I0
g0
(g1015
g1016
(dp3008
g2957
g632
sg2958
I0
sg2959
I0
sg2960
I1
sg2961
I1
sg2962
I0
sg2963
I1
stp3009
Rp3010
(dp3011
g1028
g7
sbssI90
(dp3012
I0
g0
(g1015
g1016
(dp3013
g2957
g632
sg2958
I0
sg2959
I0
sg2960
I1
sg2961
I1
sg2962
I0
sg2963
I1
stp3014
Rp3015
(dp3016
g1028
g7
sbssI91
(dp3017
I0
g0
(g1015
g1016
(dp3018
g2957
g632
sg2958
I0
sg2959
I0
sg2960
I1
sg2961
I1
sg2962
I0
sg2963
I1
stp3019
Rp3020
(dp3021
g1028
g7
sbsssI90
(dp3022
I18
(dp3023
I0
g0
(g1015
g1016
(dp3024
S'loc'
p3025
g632
sS'noHXfreeze'
p3026
I0
sS'tempCold'
p3027
I0
sS'level'
p3028
I0
sS'trackfl'
p3029
I1
sS'tempHot'
p3030
I0
sS'tempGood'
p3031
I1
stp3032
Rp3033
(dp3034
g1028
g7
sbssI91
(dp3035
I0
g0
(g1015
g1016
(dp3036
g3025
g632
sg3026
I0
sg3027
I0
sg3028
I0
sg3029
I1
sg3030
I0
sg3031
I1
stp3037
Rp3038
(dp3039
g1028
g7
sbssI84
(dp3040
I0
g0
(g1015
g1016
(dp3041
g3025
g632
sg3026
I0
sg3027
I0
sg3028
I0
sg3029
I1
sg3030
I0
sg3031
I1
stp3042
Rp3043
(dp3044
g1028
g7
sbssI85
(dp3045
I0
g0
(g1015
g1016
(dp3046
g3025
g632
sg3026
I0
sg3027
I0
sg3028
I0
sg3029
I1
sg3030
I0
sg3031
I1
stp3047
Rp3048
(dp3049
g1028
g7
sbsssI91
(dp3050
I92
(dp3051
I0
g0
(g1015
g1016
(dp3052
S'loc'
p3053
g345
sS'noHXfreeze'
p3054
I0
sS'tempCold'
p3055
I0
sS'level'
p3056
I0
sS'trackfl'
p3057
I1
sS'tempHot'
p3058
I0
sS'tempGood'
p3059
I1
stp3060
Rp3061
(dp3062
g1028
g7
sbsssI92
(dp3063
I1
(dp3064
I0
g0
(g1015
g1016
(dp3065
S'loc'
p3066
g371
sS'noHXfreeze'
p3067
I0
sS'tempCold'
p3068
I0
sS'level'
p3069
I0
sS'trackfl'
p3070
I1
sS'tempHot'
p3071
I0
sS'tempGood'
p3072
I1
stp3073
Rp3074
(dp3075
g1028
g7
sbssI103
(dp3076
I0
g0
(g1015
g1016
(dp3077
g3066
g371
sg3067
I0
sg3068
I0
sg3069
I0
sg3070
I1
sg3071
I0
sg3072
I1
stp3078
Rp3079
(dp3080
g1028
g7
sbsssI93
(dp3081
I94
(dp3082
I0
g0
(g1015
g1016
(dp3083
S'loc'
p3084
g68
sS'noHXfreeze'
p3085
I0
sS'tempCold'
p3086
I0
sS'level'
p3087
I2
sS'trackfl'
p3088
I1
sS'tempHot'
p3089
I0
sS'tempGood'
p3090
I1
stp3091
Rp3092
(dp3093
g1028
g7
sbsssI94
(dp3094
I82
(dp3095
I0
g0
(g1015
g1016
(dp3096
S'loc'
p3097
g624
sS'noHXfreeze'
p3098
I0
sS'tempCold'
p3099
I0
sS'level'
p3100
I2
sS'trackfl'
p3101
I1
sS'tempHot'
p3102
I0
sS'tempGood'
p3103
I1
stp3104
Rp3105
(dp3106
g1028
g7
sbssI95
(dp3107
I0
g0
(g1015
g1016
(dp3108
g3097
g624
sg3098
I0
sg3099
I0
sg3100
I2
sg3101
I1
sg3102
I0
sg3103
I1
stp3109
Rp3110
(dp3111
g1028
g7
sbsssI95
(dp3112
I96
(dp3113
I0
g0
(g1015
g1016
(dp3114
S'loc'
p3115
g374
sS'noHXfreeze'
p3116
I0
sS'tempCold'
p3117
I0
sS'level'
p3118
I2
sS'trackfl'
p3119
I1
sS'tempHot'
p3120
I0
sS'tempGood'
p3121
I1
stp3122
Rp3123
(dp3124
g1028
g7
sbssI97
(dp3125
I0
g0
(g1015
g1016
(dp3126
g3115
g374
sg3116
I0
sg3117
I0
sg3118
I2
sg3119
I1
sg3120
I0
sg3121
I1
stp3127
Rp3128
(dp3129
g1028
g7
sbssI167
(dp3130
I0
g0
(g1015
g1016
(dp3131
g3115
g374
sg3116
I0
sg3117
I0
sg3118
I2
sg3119
I1
sg3120
I0
sg3121
I1
stp3132
Rp3133
(dp3134
g1028
g7
sbsssI96
(dp3135
I98
(dp3136
I0
g0
(g1015
g1016
(dp3137
S'loc'
p3138
g372
sS'noHXfreeze'
p3139
I1
sS'tempCold'
p3140
I0
sS'level'
p3141
I2
sS'trackfl'
p3142
I1
sS'tempHot'
p3143
I0
sS'tempGood'
p3144
I1
stp3145
Rp3146
(dp3147
g1028
g7
sbssI99
(dp3148
I0
g0
(g1015
g1016
(dp3149
g3138
g372
sg3139
I1
sg3140
I0
sg3141
I2
sg3142
I1
sg3143
I0
sg3144
I1
stp3150
Rp3151
(dp3152
g1028
g7
sbssI100
(dp3153
I0
g0
(g1015
g1016
(dp3154
g3138
g372
sg3139
I1
sg3140
I0
sg3141
I2
sg3142
I1
sg3143
I0
sg3144
I1
stp3155
Rp3156
(dp3157
g1028
g7
sbsssI97
(dp3158
g1330
(dp3159
I0
g0
(g1015
g1016
(dp3160
S'loc'
p3161
g372
sS'noHXfreeze'
p3162
I1
sS'tempCold'
p3163
I0
sS'level'
p3164
I1
sS'trackfl'
p3165
I1
sS'tempHot'
p3166
I0
sS'tempGood'
p3167
I1
stp3168
Rp3169
(dp3170
g1028
g7
sbssI98
(dp3171
I0
g0
(g1015
g1016
(dp3172
g3161
g372
sg3162
I1
sg3163
I0
sg3164
I1
sg3165
I1
sg3166
I0
sg3167
I1
stp3173
Rp3174
(dp3175
g1028
g7
sbssI99
(dp3176
I0
g0
(g1015
g1016
(dp3177
g3161
g372
sg3162
I1
sg3163
I0
sg3164
I1
sg3165
I1
sg3166
I0
sg3167
I1
stp3178
Rp3179
(dp3180
g1028
g7
sbssI100
(dp3181
I0
g0
(g1015
g1016
(dp3182
g3161
g372
sg3162
I1
sg3163
I0
sg3164
I1
sg3165
I1
sg3166
I0
sg3167
I1
stp3183
Rp3184
(dp3185
g1028
g7
sbsssI98
(dp3186
I0
(dp3187
I0
g0
(g1015
g1016
(dp3188
S'loc'
p3189
g374
sS'noHXfreeze'
p3190
I0
sS'tempCold'
p3191
I0
sS'level'
p3192
I2
sS'trackfl'
p3193
I1
sS'tempHot'
p3194
I0
sS'tempGood'
p3195
I1
stp3196
Rp3197
(dp3198
g1028
g7
sbssI19
(dp3199
I0
g0
(g1015
g1016
(dp3200
g3189
g374
sg3190
I0
sg3191
I0
sg3192
I2
sg3193
I1
sg3194
I0
sg3195
I1
stp3201
Rp3202
(dp3203
g1028
g7
sbssI101
(dp3204
I0
g0
(g1015
g1016
(dp3205
g3189
g374
sg3190
I0
sg3191
I0
sg3192
I2
sg3193
I1
sg3194
I0
sg3195
I1
stp3206
Rp3207
(dp3208
g1028
g7
sbssI102
(dp3209
I0
g0
(g1015
g1016
(dp3210
g3189
g374
sg3190
I0
sg3191
I0
sg3192
I2
sg3193
I1
sg3194
I0
sg3195
I1
stp3211
Rp3212
(dp3213
g1028
g7
sbsssI99
(dp3214
I0
(dp3215
I0
g0
(g1015
g1016
(dp3216
S'loc'
p3217
g374
sS'noHXfreeze'
p3218
I0
sS'tempCold'
p3219
I0
sS'level'
p3220
I1
sS'trackfl'
p3221
I1
sS'tempHot'
p3222
I0
sS'tempGood'
p3223
I1
stp3224
Rp3225
(dp3226
g1028
g7
sbssI96
(dp3227
I0
g0
(g1015
g1016
(dp3228
g3217
g374
sg3218
I0
sg3219
I0
sg3220
I1
sg3221
I1
sg3222
I0
sg3223
I1
stp3229
Rp3230
(dp3231
g1028
g7
sbssI101
(dp3232
I0
g0
(g1015
g1016
(dp3233
g3217
g374
sg3218
I0
sg3219
I0
sg3220
I1
sg3221
I1
sg3222
I0
sg3223
I1
stp3234
Rp3235
(dp3236
g1028
g7
sbssI102
(dp3237
I0
g0
(g1015
g1016
(dp3238
g3217
g374
sg3218
I0
sg3219
I0
sg3220
I1
sg3221
I1
sg3222
I0
sg3223
I1
stp3239
Rp3240
(dp3241
g1028
g7
sbssI97
(dp3242
I0
g0
(g1015
g1016
(dp3243
g3217
g374
sg3218
I0
sg3219
I0
sg3220
I1
sg3221
I1
sg3222
I0
sg3223
I1
stp3244
Rp3245
(dp3246
g1028
g7
sbssg1330
(dp3247
I0
g0
(g1015
g1016
(dp3248
g3217
g374
sg3218
I0
sg3219
I0
sg3220
I1
sg3221
I1
sg3222
I0
sg3223
I1
stp3249
Rp3250
(dp3251
g1028
g7
sbssI167
(dp3252
I0
g0
(g1015
g1016
(dp3253
g3217
g374
sg3218
I0
sg3219
I0
sg3220
I1
sg3221
I1
sg3222
I0
sg3223
I1
stp3254
Rp3255
(dp3256
g1028
g7
sbssI19
(dp3257
I0
g0
(g1015
g1016
(dp3258
g3217
g374
sg3218
I0
sg3219
I0
sg3220
I1
sg3221
I1
sg3222
I0
sg3223
I1
stp3259
Rp3260
(dp3261
g1028
g7
sbssI166
(dp3262
I0
g0
(g1015
g1016
(dp3263
g3217
g374
sg3218
I0
sg3219
I0
sg3220
I1
sg3221
I1
sg3222
I0
sg3223
I1
stp3264
Rp3265
(dp3266
g1028
g7
sbsssI100
(dp3267
I101
(dp3268
I0
g0
(g1015
g1016
(dp3269
S'loc'
p3270
g374
sS'noHXfreeze'
p3271
I0
sS'tempCold'
p3272
I0
sS'level'
p3273
I0
sS'trackfl'
p3274
I1
sS'tempHot'
p3275
I0
sS'tempGood'
p3276
I1
stp3277
Rp3278
(dp3279
g1028
g7
sbssI102
(dp3280
I0
g0
(g1015
g1016
(dp3281
g3270
g374
sg3271
I0
sg3272
I0
sg3273
I0
sg3274
I1
sg3275
I0
sg3276
I1
stp3282
Rp3283
(dp3284
g1028
g7
sbsssI101
(dp3285
I104
(dp3286
I0
g0
(g1015
g1016
(dp3287
S'loc'
p3288
g368
sS'noHXfreeze'
p3289
I0
sS'tempCold'
p3290
I0
sS'level'
p3291
I2
sS'trackfl'
p3292
I1
sS'tempHot'
p3293
I0
sS'tempGood'
p3294
I1
stp3295
Rp3296
(dp3297
g1028
g7
sbssI1
(dp3298
I0
g0
(g1015
g1016
(dp3299
g3288
g368
sg3289
I0
sg3290
I0
sg3291
I2
sg3292
I1
sg3293
I0
sg3294
I1
stp3300
Rp3301
(dp3302
g1028
g7
sbssI92
(dp3303
I0
g0
(g1015
g1016
(dp3304
g3288
g368
sg3289
I0
sg3290
I0
sg3291
I2
sg3292
I1
sg3293
I0
sg3294
I1
stp3305
Rp3306
(dp3307
g1028
g7
sbssI103
(dp3308
I0
g0
(g1015
g1016
(dp3309
g3288
g368
sg3289
I0
sg3290
I0
sg3291
I2
sg3292
I1
sg3293
I0
sg3294
I1
stp3310
Rp3311
(dp3312
g1028
g7
sbsssI102
(dp3313
I1
(dp3314
I0
g0
(g1015
g1016
(dp3315
S'loc'
p3316
g368
sS'noHXfreeze'
p3317
I0
sS'tempCold'
p3318
I0
sS'level'
p3319
I1
sS'trackfl'
p3320
I1
sS'tempHot'
p3321
I0
sS'tempGood'
p3322
I1
stp3323
Rp3324
(dp3325
g1028
g7
sbssI103
(dp3326
I0
g0
(g1015
g1016
(dp3327
g3316
g368
sg3317
I0
sg3318
I0
sg3319
I1
sg3320
I1
sg3321
I0
sg3322
I1
stp3328
Rp3329
(dp3330
g1028
g7
sbssI104
(dp3331
I0
g0
(g1015
g1016
(dp3332
g3316
g368
sg3317
I0
sg3318
I0
sg3319
I1
sg3320
I1
sg3321
I0
sg3322
I1
stp3333
Rp3334
(dp3335
g1028
g7
sbssg1330
(dp3336
I0
g0
(g1015
g1016
(dp3337
g3316
g368
sg3317
I0
sg3318
I0
sg3319
I1
sg3320
I1
sg3321
I0
sg3322
I1
stp3338
Rp3339
(dp3340
g1028
g7
sbssI82
(dp3341
I0
g0
(g1015
g1016
(dp3342
g3316
g368
sg3317
I0
sg3318
I0
sg3319
I1
sg3320
I1
sg3321
I0
sg3322
I1
stp3343
Rp3344
(dp3345
g1028
g7
sbssI83
(dp3346
I0
g0
(g1015
g1016
(dp3347
g3316
g368
sg3317
I0
sg3318
I0
sg3319
I1
sg3320
I1
sg3321
I0
sg3322
I1
stp3348
Rp3349
(dp3350
g1028
g7
sbssI92
(dp3351
I0
g0
(g1015
g1016
(dp3352
g3316
g368
sg3317
I0
sg3318
I0
sg3319
I1
sg3320
I1
sg3321
I0
sg3322
I1
stp3353
Rp3354
(dp3355
g1028
g7
sbssI94
(dp3356
I0
g0
(g1015
g1016
(dp3357
g3316
g368
sg3317
I0
sg3318
I0
sg3319
I1
sg3320
I1
sg3321
I0
sg3322
I1
stp3358
Rp3359
(dp3360
g1028
g7
sbssI95
(dp3361
I0
g0
(g1015
g1016
(dp3362
g3316
g368
sg3317
I0
sg3318
I0
sg3319
I1
sg3320
I1
sg3321
I0
sg3322
I1
stp3363
Rp3364
(dp3365
g1028
g7
sbsssI103
(dp3366
I104
(dp3367
I0
g0
(g1015
g1016
(dp3368
S'loc'
p3369
g368
sS'noHXfreeze'
p3370
I0
sS'tempCold'
p3371
I0
sS'level'
p3372
I0
sS'trackfl'
p3373
I1
sS'tempHot'
p3374
I0
sS'tempGood'
p3375
I1
stp3376
Rp3377
(dp3378
g1028
g7
sbssI82
(dp3379
I0
g0
(g1015
g1016
(dp3380
g3369
g368
sg3370
I0
sg3371
I0
sg3372
I0
sg3373
I1
sg3374
I0
sg3375
I1
stp3381
Rp3382
(dp3383
g1028
g7
sbssI83
(dp3384
I0
g0
(g1015
g1016
(dp3385
g3369
g368
sg3370
I0
sg3371
I0
sg3372
I0
sg3373
I1
sg3374
I0
sg3375
I1
stp3386
Rp3387
(dp3388
g1028
g7
sbssI94
(dp3389
I0
g0
(g1015
g1016
(dp3390
g3369
g368
sg3370
I0
sg3371
I0
sg3372
I0
sg3373
I1
sg3374
I0
sg3375
I1
stp3391
Rp3392
(dp3393
g1028
g7
sbssI95
(dp3394
I0
g0
(g1015
g1016
(dp3395
g3369
g368
sg3370
I0
sg3371
I0
sg3372
I0
sg3373
I1
sg3374
I0
sg3375
I1
stp3396
Rp3397
(dp3398
g1028
g7
sbsssI104
(dp3399
I105
(dp3400
I0
g0
(g1015
g1016
(dp3401
S'loc'
p3402
g624
sS'noHXfreeze'
p3403
I0
sS'tempCold'
p3404
I0
sS'level'
p3405
I0
sS'trackfl'
p3406
I1
sS'tempHot'
p3407
I0
sS'tempGood'
p3408
I1
stp3409
Rp3410
(dp3411
g1028
g7
sbsssI105
(dp3412
I108
(dp3413
I0
g0
(g1015
g1016
(dp3414
S'loc'
p3415
g413
sS'noHXfreeze'
p3416
I0
sS'tempCold'
p3417
I0
sS'level'
p3418
I0
sS'trackfl'
p3419
I1
sS'tempHot'
p3420
I0
sS'tempGood'
p3421
I1
stp3422
Rp3423
(dp3424
g1028
g7
sbsssI106
(dp3425
I17
(dp3426
I0
g0
(g1015
g1016
(dp3427
S'loc'
p3428
g71
sS'noHXfreeze'
p3429
I0
sS'tempCold'
p3430
I0
sS'level'
p3431
I2
sS'trackfl'
p3432
I1
sS'tempHot'
p3433
I0
sS'tempGood'
p3434
I1
stp3435
Rp3436
(dp3437
g1028
g7
sbssI108
(dp3438
I0
g0
(g1015
g1016
(dp3439
g3428
g71
sg3429
I0
sg3430
I0
sg3431
I2
sg3432
I1
sg3433
I0
sg3434
I1
stp3440
Rp3441
(dp3442
g1028
g7
sbssI109
(dp3443
I0
g0
(g1015
g1016
(dp3444
g3428
g71
sg3429
I0
sg3430
I0
sg3431
I2
sg3432
I1
sg3433
I0
sg3434
I1
stp3445
Rp3446
(dp3447
g1028
g7
sbssI105
(dp3448
I0
g0
(g1015
g1016
(dp3449
g3428
g71
sg3429
I0
sg3430
I0
sg3431
I2
sg3432
I1
sg3433
I0
sg3434
I1
stp3450
Rp3451
(dp3452
g1028
g7
sbsssI107
(dp3453
I163
(dp3454
I0
g0
(g1015
g1016
(dp3455
S'loc'
p3456
g71
sS'noHXfreeze'
p3457
I0
sS'tempCold'
p3458
I0
sS'level'
p3459
I1
sS'trackfl'
p3460
I1
sS'tempHot'
p3461
I0
sS'tempGood'
p3462
I1
stp3463
Rp3464
(dp3465
g1028
g7
sbssI164
(dp3466
I0
g0
(g1015
g1016
(dp3467
g3456
g71
sg3457
I0
sg3458
I0
sg3459
I1
sg3460
I1
sg3461
I0
sg3462
I1
stp3468
Rp3469
(dp3470
g1028
g7
sbssI165
(dp3471
I0
g0
(g1015
g1016
(dp3472
g3456
g71
sg3457
I0
sg3458
I0
sg3459
I1
sg3460
I1
sg3461
I0
sg3462
I1
stp3473
Rp3474
(dp3475
g1028
g7
sbssg1330
(dp3476
I0
g0
(g1015
g1016
(dp3477
g3456
g71
sg3457
I0
sg3458
I0
sg3459
I1
sg3460
I1
sg3461
I0
sg3462
I1
stp3478
Rp3479
(dp3480
g1028
g7
sbssI105
(dp3481
I0
g0
(g1015
g1016
(dp3482
g3456
g71
sg3457
I0
sg3458
I0
sg3459
I1
sg3460
I1
sg3461
I0
sg3462
I1
stp3483
Rp3484
(dp3485
g1028
g7
sbssI108
(dp3486
I0
g0
(g1015
g1016
(dp3487
g3456
g71
sg3457
I0
sg3458
I0
sg3459
I1
sg3460
I1
sg3461
I0
sg3462
I1
stp3488
Rp3489
(dp3490
g1028
g7
sbssI109
(dp3491
I0
g0
(g1015
g1016
(dp3492
g3456
g71
sg3457
I0
sg3458
I0
sg3459
I1
sg3460
I1
sg3461
I0
sg3462
I1
stp3493
Rp3494
(dp3495
g1028
g7
sbssI110
(dp3496
I0
g0
(g1015
g1016
(dp3497
g3456
g71
sg3457
I0
sg3458
I0
sg3459
I1
sg3460
I1
sg3461
I0
sg3462
I1
stp3498
Rp3499
(dp3500
g1028
g7
sbssI111
(dp3501
I0
g0
(g1015
g1016
(dp3502
g3456
g71
sg3457
I0
sg3458
I0
sg3459
I1
sg3460
I1
sg3461
I0
sg3462
I1
stp3503
Rp3504
(dp3505
g1028
g7
sbssI17
(dp3506
I0
g0
(g1015
g1016
(dp3507
g3456
g71
sg3457
I0
sg3458
I0
sg3459
I1
sg3460
I1
sg3461
I0
sg3462
I1
stp3508
Rp3509
(dp3510
g1028
g7
sbssI93
(dp3511
I0
g0
(g1015
g1016
(dp3512
g3456
g71
sg3457
I0
sg3458
I0
sg3459
I1
sg3460
I1
sg3461
I0
sg3462
I1
stp3513
Rp3514
(dp3515
g1028
g7
sbsssI108
(dp3516
I163
(dp3517
I0
g0
(g1015
g1016
(dp3518
S'loc'
p3519
g71
sS'noHXfreeze'
p3520
I0
sS'tempCold'
p3521
I0
sS'level'
p3522
I0
sS'trackfl'
p3523
I1
sS'tempHot'
p3524
I0
sS'tempGood'
p3525
I1
stp3526
Rp3527
(dp3528
g1028
g7
sbssI164
(dp3529
I0
g0
(g1015
g1016
(dp3530
g3519
g71
sg3520
I0
sg3521
I0
sg3522
I0
sg3523
I1
sg3524
I0
sg3525
I1
stp3531
Rp3532
(dp3533
g1028
g7
sbssI165
(dp3534
I0
g0
(g1015
g1016
(dp3535
g3519
g71
sg3520
I0
sg3521
I0
sg3522
I0
sg3523
I1
sg3524
I0
sg3525
I1
stp3536
Rp3537
(dp3538
g1028
g7
sbssI109
(dp3539
I0
g0
(g1015
g1016
(dp3540
g3519
g71
sg3520
I0
sg3521
I0
sg3522
I0
sg3523
I1
sg3524
I0
sg3525
I1
stp3541
Rp3542
(dp3543
g1028
g7
sbssI110
(dp3544
I0
g0
(g1015
g1016
(dp3545
g3519
g71
sg3520
I0
sg3521
I0
sg3522
I0
sg3523
I1
sg3524
I0
sg3525
I1
stp3546
Rp3547
(dp3548
g1028
g7
sbssI111
(dp3549
I0
g0
(g1015
g1016
(dp3550
g3519
g71
sg3520
I0
sg3521
I0
sg3522
I0
sg3523
I1
sg3524
I0
sg3525
I1
stp3551
Rp3552
(dp3553
g1028
g7
sbssI17
(dp3554
I0
g0
(g1015
g1016
(dp3555
g3519
g71
sg3520
I0
sg3521
I0
sg3522
I0
sg3523
I1
sg3524
I0
sg3525
I1
stp3556
Rp3557
(dp3558
g1028
g7
sbssI93
(dp3559
I0
g0
(g1015
g1016
(dp3560
g3519
g71
sg3520
I0
sg3521
I0
sg3522
I0
sg3523
I1
sg3524
I0
sg3525
I1
stp3561
Rp3562
(dp3563
g1028
g7
sbsssI109
(dp3564
I112
(dp3565
I0
g0
(g1015
g1016
(dp3566
S'loc'
p3567
g75
sS'noHXfreeze'
p3568
I1
sS'tempCold'
p3569
I0
sS'level'
p3570
I0
sS'trackfl'
p3571
I1
sS'tempHot'
p3572
I0
sS'tempGood'
p3573
I1
stp3574
Rp3575
(dp3576
g1028
g7
sbssI113
(dp3577
I0
g0
(g1015
g1016
(dp3578
g3567
g75
sg3568
I1
sg3569
I0
sg3570
I0
sg3571
I1
sg3572
I0
sg3573
I1
stp3579
Rp3580
(dp3581
g1028
g7
sbssI106
(dp3582
I0
g0
(g1015
g1016
(dp3583
g3567
g75
sg3568
I1
sg3569
I0
sg3570
I0
sg3571
I1
sg3572
I0
sg3573
I1
stp3584
Rp3585
(dp3586
g1028
g7
sbssI107
(dp3587
I0
g0
(g1015
g1016
(dp3588
g3567
g75
sg3568
I1
sg3569
I0
sg3570
I0
sg3571
I1
sg3572
I0
sg3573
I1
stp3589
Rp3590
(dp3591
g1028
g7
sbssI114
(dp3592
I0
g0
(g1015
g1016
(dp3593
g3567
g75
sg3568
I1
sg3569
I0
sg3570
I0
sg3571
I1
sg3572
I0
sg3573
I1
stp3594
Rp3595
(dp3596
g1028
g7
sbsssI110
(dp3597
I112
(dp3598
I0
g0
(g1015
g1016
(dp3599
S'loc'
p3600
g75
sS'noHXfreeze'
p3601
I1
sS'tempCold'
p3602
I0
sS'level'
p3603
I2
sS'trackfl'
p3604
I1
sS'tempHot'
p3605
I0
sS'tempGood'
p3606
I1
stp3607
Rp3608
(dp3609
g1028
g7
sbssI113
(dp3610
I0
g0
(g1015
g1016
(dp3611
g3600
g75
sg3601
I1
sg3602
I0
sg3603
I2
sg3604
I1
sg3605
I0
sg3606
I1
stp3612
Rp3613
(dp3614
g1028
g7
sbssI106
(dp3615
I0
g0
(g1015
g1016
(dp3616
g3600
g75
sg3601
I1
sg3602
I0
sg3603
I2
sg3604
I1
sg3605
I0
sg3606
I1
stp3617
Rp3618
(dp3619
g1028
g7
sbssI107
(dp3620
I0
g0
(g1015
g1016
(dp3621
g3600
g75
sg3601
I1
sg3602
I0
sg3603
I2
sg3604
I1
sg3605
I0
sg3606
I1
stp3622
Rp3623
(dp3624
g1028
g7
sbssI114
(dp3625
I0
g0
(g1015
g1016
(dp3626
g3600
g75
sg3601
I1
sg3602
I0
sg3603
I2
sg3604
I1
sg3605
I0
sg3606
I1
stp3627
Rp3628
(dp3629
g1028
g7
sbsssI111
(dp3630
g1330
(dp3631
I0
g0
(g1015
g1016
(dp3632
S'loc'
p3633
g75
sS'noHXfreeze'
p3634
I1
sS'tempCold'
p3635
I0
sS'level'
p3636
I1
sS'trackfl'
p3637
I1
sS'tempHot'
p3638
I0
sS'tempGood'
p3639
I1
stp3640
Rp3641
(dp3642
g1028
g7
sbssI106
(dp3643
I0
g0
(g1015
g1016
(dp3644
g3633
g75
sg3634
I1
sg3635
I0
sg3636
I1
sg3637
I1
sg3638
I0
sg3639
I1
stp3645
Rp3646
(dp3647
g1028
g7
sbssI107
(dp3648
I0
g0
(g1015
g1016
(dp3649
g3633
g75
sg3634
I1
sg3635
I0
sg3636
I1
sg3637
I1
sg3638
I0
sg3639
I1
stp3650
Rp3651
(dp3652
g1028
g7
sbssI112
(dp3653
I0
g0
(g1015
g1016
(dp3654
g3633
g75
sg3634
I1
sg3635
I0
sg3636
I1
sg3637
I1
sg3638
I0
sg3639
I1
stp3655
Rp3656
(dp3657
g1028
g7
sbssI113
(dp3658
I0
g0
(g1015
g1016
(dp3659
g3633
g75
sg3634
I1
sg3635
I0
sg3636
I1
sg3637
I1
sg3638
I0
sg3639
I1
stp3660
Rp3661
(dp3662
g1028
g7
sbssI114
(dp3663
I0
g0
(g1015
g1016
(dp3664
g3633
g75
sg3634
I1
sg3635
I0
sg3636
I1
sg3637
I1
sg3638
I0
sg3639
I1
stp3665
Rp3666
(dp3667
g1028
g7
sbsssI112
(dp3668
I16
(dp3669
I0
g0
(g1015
g1016
(dp3670
S'loc'
p3671
g77
sS'noHXfreeze'
p3672
I0
sS'tempCold'
p3673
I0
sS'level'
p3674
I2
sS'trackfl'
p3675
I1
sS'tempHot'
p3676
I0
sS'tempGood'
p3677
I1
stp3678
Rp3679
(dp3680
g1028
g7
sbssI115
(dp3681
I0
g0
(g1015
g1016
(dp3682
g3671
g77
sg3672
I0
sg3673
I0
sg3674
I2
sg3675
I1
sg3676
I0
sg3677
I1
stp3683
Rp3684
(dp3685
g1028
g7
sbssI116
(dp3686
I0
g0
(g1015
g1016
(dp3687
g3671
g77
sg3672
I0
sg3673
I0
sg3674
I2
sg3675
I1
sg3676
I0
sg3677
I1
stp3688
Rp3689
(dp3690
g1028
g7
sbssI15
(dp3691
I0
g0
(g1015
g1016
(dp3692
g3671
g77
sg3672
I0
sg3673
I0
sg3674
I2
sg3675
I1
sg3676
I0
sg3677
I1
stp3693
Rp3694
(dp3695
g1028
g7
sbsssI113
(dp3696
I16
(dp3697
I0
g0
(g1015
g1016
(dp3698
S'loc'
p3699
g77
sS'noHXfreeze'
p3700
I0
sS'tempCold'
p3701
I0
sS'level'
p3702
I1
sS'trackfl'
p3703
I1
sS'tempHot'
p3704
I0
sS'tempGood'
p3705
I1
stp3706
Rp3707
(dp3708
g1028
g7
sbssg1330
(dp3709
I0
g0
(g1015
g1016
(dp3710
g3699
g77
sg3700
I0
sg3701
I0
sg3702
I1
sg3703
I1
sg3704
I0
sg3705
I1
stp3711
Rp3712
(dp3713
g1028
g7
sbssI115
(dp3714
I0
g0
(g1015
g1016
(dp3715
g3699
g77
sg3700
I0
sg3701
I0
sg3702
I1
sg3703
I1
sg3704
I0
sg3705
I1
stp3716
Rp3717
(dp3718
g1028
g7
sbssI116
(dp3719
I0
g0
(g1015
g1016
(dp3720
g3699
g77
sg3700
I0
sg3701
I0
sg3702
I1
sg3703
I1
sg3704
I0
sg3705
I1
stp3721
Rp3722
(dp3723
g1028
g7
sbssI15
(dp3724
I0
g0
(g1015
g1016
(dp3725
g3699
g77
sg3700
I0
sg3701
I0
sg3702
I1
sg3703
I1
sg3704
I0
sg3705
I1
stp3726
Rp3727
(dp3728
g1028
g7
sbsssI114
(dp3729
I16
(dp3730
I0
g0
(g1015
g1016
(dp3731
S'loc'
p3732
g77
sS'noHXfreeze'
p3733
I0
sS'tempCold'
p3734
I0
sS'level'
p3735
I0
sS'trackfl'
p3736
I1
sS'tempHot'
p3737
I0
sS'tempGood'
p3738
I1
stp3739
Rp3740
(dp3741
g1028
g7
sbssI115
(dp3742
I0
g0
(g1015
g1016
(dp3743
g3732
g77
sg3733
I0
sg3734
I0
sg3735
I0
sg3736
I1
sg3737
I0
sg3738
I1
stp3744
Rp3745
(dp3746
g1028
g7
sbssI116
(dp3747
I0
g0
(g1015
g1016
(dp3748
g3732
g77
sg3733
I0
sg3734
I0
sg3735
I0
sg3736
I1
sg3737
I0
sg3738
I1
stp3749
Rp3750
(dp3751
g1028
g7
sbssI15
(dp3752
I0
g0
(g1015
g1016
(dp3753
g3732
g77
sg3733
I0
sg3734
I0
sg3735
I0
sg3736
I1
sg3737
I0
sg3738
I1
stp3754
Rp3755
(dp3756
g1028
g7
sbsssI115
(dp3757
I118
(dp3758
I0
g0
(g1015
g1016
(dp3759
S'loc'
p3760
g882
sS'noHXfreeze'
p3761
I0
sS'tempCold'
p3762
I0
sS'level'
p3763
I2
sS'trackfl'
p3764
I1
sS'tempHot'
p3765
I0
sS'tempGood'
p3766
I1
stp3767
Rp3768
(dp3769
g1028
g7
sbssI14
(dp3770
I0
g0
(g1015
g1016
(dp3771
g3760
g882
sg3761
I0
sg3762
I0
sg3763
I2
sg3764
I1
sg3765
I0
sg3766
I1
stp3772
Rp3773
(dp3774
g1028
g7
sbssI127
(dp3775
I0
g0
(g1015
g1016
(dp3776
g3760
g882
sg3761
I0
sg3762
I0
sg3763
I2
sg3764
I1
sg3765
I0
sg3766
I1
stp3777
Rp3778
(dp3779
g1028
g7
sbsssI116
(dp3780
I160
(dp3781
I0
g0
(g1015
g1016
(dp3782
S'loc'
p3783
g882
sS'noHXfreeze'
p3784
I0
sS'tempCold'
p3785
I0
sS'level'
p3786
I1
sS'trackfl'
p3787
I1
sS'tempHot'
p3788
I0
sS'tempGood'
p3789
I1
stp3790
Rp3791
(dp3792
g1028
g7
sbssI161
(dp3793
I0
g0
(g1015
g1016
(dp3794
g3783
g882
sg3784
I0
sg3785
I0
sg3786
I1
sg3787
I1
sg3788
I0
sg3789
I1
stp3795
Rp3796
(dp3797
g1028
g7
sbssI162
(dp3798
I0
g0
(g1015
g1016
(dp3799
g3783
g882
sg3784
I0
sg3785
I0
sg3786
I1
sg3787
I1
sg3788
I0
sg3789
I1
stp3800
Rp3801
(dp3802
g1028
g7
sbssg1330
(dp3803
I0
g0
(g1015
g1016
(dp3804
g3783
g882
sg3784
I0
sg3785
I0
sg3786
I1
sg3787
I1
sg3788
I0
sg3789
I1
stp3805
Rp3806
(dp3807
g1028
g7
sbssI14
(dp3808
I0
g0
(g1015
g1016
(dp3809
g3783
g882
sg3784
I0
sg3785
I0
sg3786
I1
sg3787
I1
sg3788
I0
sg3789
I1
stp3810
Rp3811
(dp3812
g1028
g7
sbssI118
(dp3813
I0
g0
(g1015
g1016
(dp3814
g3783
g882
sg3784
I0
sg3785
I0
sg3786
I1
sg3787
I1
sg3788
I0
sg3789
I1
stp3815
Rp3816
(dp3817
g1028
g7
sbssI122
(dp3818
I0
g0
(g1015
g1016
(dp3819
g3783
g882
sg3784
I0
sg3785
I0
sg3786
I1
sg3787
I1
sg3788
I0
sg3789
I1
stp3820
Rp3821
(dp3822
g1028
g7
sbssI127
(dp3823
I0
g0
(g1015
g1016
(dp3824
g3783
g882
sg3784
I0
sg3785
I0
sg3786
I1
sg3787
I1
sg3788
I0
sg3789
I1
stp3825
Rp3826
(dp3827
g1028
g7
sbsssI117
(dp3828
I118
(dp3829
I0
g0
(g1015
g1016
(dp3830
S'loc'
p3831
g292
sS'noHXfreeze'
p3832
I0
sS'tempCold'
p3833
I0
sS'level'
p3834
I0
sS'trackfl'
p3835
I1
sS'tempHot'
p3836
I0
sS'tempGood'
p3837
I1
stp3838
Rp3839
(dp3840
g1028
g7
sbssI14
(dp3841
I0
g0
(g1015
g1016
(dp3842
g3831
g292
sg3832
I0
sg3833
I0
sg3834
I0
sg3835
I1
sg3836
I0
sg3837
I1
stp3843
Rp3844
(dp3845
g1028
g7
sbsssI118
(dp3846
I119
(dp3847
I0
g0
(g1015
g1016
(dp3848
S'loc'
p3849
g945
sS'noHXfreeze'
p3850
I0
sS'tempCold'
p3851
I0
sS'level'
p3852
I0
sS'trackfl'
p3853
I1
sS'tempHot'
p3854
I0
sS'tempGood'
p3855
I1
stp3856
Rp3857
(dp3858
g1028
g7
sbsssI119
(dp3859
I125
(dp3860
I0
g0
(g1015
g1016
(dp3861
S'loc'
p3862
g771
sS'noHXfreeze'
p3863
I1
sS'tempCold'
p3864
I0
sS'level'
p3865
I0
sS'trackfl'
p3866
I1
sS'tempHot'
p3867
I0
sS'tempGood'
p3868
I1
stp3869
Rp3870
(dp3871
g1028
g7
sbssI126
(dp3872
I0
g0
(g1015
g1016
(dp3873
g3862
g771
sg3863
I1
sg3864
I0
sg3865
I0
sg3866
I1
sg3867
I0
sg3868
I1
stp3874
Rp3875
(dp3876
g1028
g7
sbsssI120
(dp3877
I121
(dp3878
I0
g0
(g1015
g1016
(dp3879
S'loc'
p3880
g538
sS'noHXfreeze'
p3881
I0
sS'tempCold'
p3882
I0
sS'level'
p3883
I2
sS'trackfl'
p3884
I3
sS'tempHot'
p3885
I0
sS'tempGood'
p3886
I0
stp3887
Rp3888
(dp3889
g1028
g7
sbsssI121
(dp3890
I122
(dp3891
I0
g0
(g1015
g1016
(dp3892
S'loc'
p3893
g769
sS'noHXfreeze'
p3894
I0
sS'tempCold'
p3895
I0
sS'level'
p3896
I2
sS'trackfl'
p3897
I3
sS'tempHot'
p3898
I0
sS'tempGood'
p3899
I0
stp3900
Rp3901
(dp3902
g1028
g7
sbsssI122
(dp3903
I124
(dp3904
I0
g0
(g1015
g1016
(dp3905
S'loc'
p3906
g276
sS'noHXfreeze'
p3907
I0
sS'tempCold'
p3908
I0
sS'level'
p3909
I2
sS'trackfl'
p3910
I1
sS'tempHot'
p3911
I0
sS'tempGood'
p3912
I1
stp3913
Rp3914
(dp3915
g1028
g7
sbsssI123
(dp3916
I125
(dp3917
I0
g0
(g1015
g1016
(dp3918
S'loc'
p3919
g771
sS'noHXfreeze'
p3920
I1
sS'tempCold'
p3921
I0
sS'level'
p3922
I2
sS'trackfl'
p3923
I1
sS'tempHot'
p3924
I0
sS'tempGood'
p3925
I1
stp3926
Rp3927
(dp3928
g1028
g7
sbssI126
(dp3929
I0
g0
(g1015
g1016
(dp3930
g3919
g771
sg3920
I1
sg3921
I0
sg3922
I2
sg3923
I1
sg3924
I0
sg3925
I1
stp3931
Rp3932
(dp3933
g1028
g7
sbsssI124
(dp3934
g1330
(dp3935
I0
g0
(g1015
g1016
(dp3936
S'loc'
p3937
g771
sS'noHXfreeze'
p3938
I1
sS'tempCold'
p3939
I0
sS'level'
p3940
I1
sS'trackfl'
p3941
I1
sS'tempHot'
p3942
I0
sS'tempGood'
p3943
I1
stp3944
Rp3945
(dp3946
g1028
g7
sbssI125
(dp3947
I0
g0
(g1015
g1016
(dp3948
g3937
g771
sg3938
I1
sg3939
I0
sg3940
I1
sg3941
I1
sg3942
I0
sg3943
I1
stp3949
Rp3950
(dp3951
g1028
g7
sbssI126
(dp3952
I0
g0
(g1015
g1016
(dp3953
g3937
g771
sg3938
I1
sg3939
I0
sg3940
I1
sg3941
I1
sg3942
I0
sg3943
I1
stp3954
Rp3955
(dp3956
g1028
g7
sbsssI125
(dp3957
I157
(dp3958
I0
g0
(g1015
g1016
(dp3959
S'loc'
p3960
g276
sS'noHXfreeze'
p3961
I0
sS'tempCold'
p3962
I0
sS'level'
p3963
I2
sS'trackfl'
p3964
I1
sS'tempHot'
p3965
I0
sS'tempGood'
p3966
I1
stp3967
Rp3968
(dp3969
g1028
g7
sbssI134
(dp3970
I0
g0
(g1015
g1016
(dp3971
g3960
g276
sg3961
I0
sg3962
I0
sg3963
I2
sg3964
I1
sg3965
I0
sg3966
I1
stp3972
Rp3973
(dp3974
g1028
g7
sbssI119
(dp3975
I0
g0
(g1015
g1016
(dp3976
g3960
g276
sg3961
I0
sg3962
I0
sg3963
I2
sg3964
I1
sg3965
I0
sg3966
I1
stp3977
Rp3978
(dp3979
g1028
g7
sbsssI126
(dp3980
I134
(dp3981
I0
g0
(g1015
g1016
(dp3982
S'loc'
p3983
g276
sS'noHXfreeze'
p3984
I0
sS'tempCold'
p3985
I0
sS'level'
p3986
I1
sS'trackfl'
p3987
I1
sS'tempHot'
p3988
I0
sS'tempGood'
p3989
I1
stp3990
Rp3991
(dp3992
g1028
g7
sbssg1330
(dp3993
I0
g0
(g1015
g1016
(dp3994
g3983
g276
sg3984
I0
sg3985
I0
sg3986
I1
sg3987
I1
sg3988
I0
sg3989
I1
stp3995
Rp3996
(dp3997
g1028
g7
sbssI119
(dp3998
I0
g0
(g1015
g1016
(dp3999
g3983
g276
sg3984
I0
sg3985
I0
sg3986
I1
sg3987
I1
sg3988
I0
sg3989
I1
stp4000
Rp4001
(dp4002
g1028
g7
sbssI121
(dp4003
I0
g0
(g1015
g1016
(dp4004
g3983
g276
sg3984
I0
sg3985
I0
sg3986
I1
sg3987
I1
sg3988
I0
sg3989
I1
stp4005
Rp4006
(dp4007
g1028
g7
sbssI123
(dp4008
I0
g0
(g1015
g1016
(dp4009
g3983
g276
sg3984
I0
sg3985
I0
sg3986
I1
sg3987
I1
sg3988
I0
sg3989
I1
stp4010
Rp4011
(dp4012
g1028
g7
sbssI124
(dp4013
I0
g0
(g1015
g1016
(dp4014
g3983
g276
sg3984
I0
sg3985
I0
sg3986
I1
sg3987
I1
sg3988
I0
sg3989
I1
stp4015
Rp4016
(dp4017
g1028
g7
sbssI157
(dp4018
I0
g0
(g1015
g1016
(dp4019
g3983
g276
sg3984
I0
sg3985
I0
sg3986
I1
sg3987
I1
sg3988
I0
sg3989
I1
stp4020
Rp4021
(dp4022
g1028
g7
sbssI159
(dp4023
I0
g0
(g1015
g1016
(dp4024
g3983
g276
sg3984
I0
sg3985
I0
sg3986
I1
sg3987
I1
sg3988
I0
sg3989
I1
stp4025
Rp4026
(dp4027
g1028
g7
sbsssI127
(dp4028
I134
(dp4029
I0
g0
(g1015
g1016
(dp4030
S'loc'
p4031
g276
sS'noHXfreeze'
p4032
I0
sS'tempCold'
p4033
I0
sS'level'
p4034
I0
sS'trackfl'
p4035
I1
sS'tempHot'
p4036
I0
sS'tempGood'
p4037
I1
stp4038
Rp4039
(dp4040
g1028
g7
sbssI121
(dp4041
I0
g0
(g1015
g1016
(dp4042
g4031
g276
sg4032
I0
sg4033
I0
sg4034
I0
sg4035
I1
sg4036
I0
sg4037
I1
stp4043
Rp4044
(dp4045
g1028
g7
sbssI123
(dp4046
I0
g0
(g1015
g1016
(dp4047
g4031
g276
sg4032
I0
sg4033
I0
sg4034
I0
sg4035
I1
sg4036
I0
sg4037
I1
stp4048
Rp4049
(dp4050
g1028
g7
sbssI124
(dp4051
I0
g0
(g1015
g1016
(dp4052
g4031
g276
sg4032
I0
sg4033
I0
sg4034
I0
sg4035
I1
sg4036
I0
sg4037
I1
stp4053
Rp4054
(dp4055
g1028
g7
sbssI157
(dp4056
I0
g0
(g1015
g1016
(dp4057
g4031
g276
sg4032
I0
sg4033
I0
sg4034
I0
sg4035
I1
sg4036
I0
sg4037
I1
stp4058
Rp4059
(dp4060
g1028
g7
sbssI159
(dp4061
I0
g0
(g1015
g1016
(dp4062
g4031
g276
sg4032
I0
sg4033
I0
sg4034
I0
sg4035
I1
sg4036
I0
sg4037
I1
stp4063
Rp4064
(dp4065
g1028
g7
sbsssI128
(dp4066
I129
(dp4067
I0
g0
(g1015
g1016
(dp4068
S'loc'
p4069
g278
sS'noHXfreeze'
p4070
I0
sS'tempCold'
p4071
I0
sS'level'
p4072
I1
sS'trackfl'
p4073
I3
sS'tempHot'
p4074
I0
sS'tempGood'
p4075
I0
stp4076
Rp4077
(dp4078
g1028
g7
sbssI10
(dp4079
I0
g0
(g1015
g1016
(dp4080
g4069
g278
sg4070
I0
sg4071
I0
sg4072
I1
sg4073
I3
sg4074
I0
sg4075
I0
stp4081
Rp4082
(dp4083
g1028
g7
sbssI6
(dp4084
I0
g0
(g1015
g1016
(dp4085
g4069
g278
sg4070
I0
sg4071
I0
sg4072
I1
sg4073
I3
sg4074
I0
sg4075
I0
stp4086
Rp4087
(dp4088
g1028
g7
sbsssI129
(dp4089
I128
(dp4090
I0
g0
(g1015
g1016
(dp4091
S'loc'
p4092
g599
sS'noHXfreeze'
p4093
I1
sS'tempCold'
p4094
I0
sS'level'
p4095
I0
sS'trackfl'
p4096
I3
sS'tempHot'
p4097
I0
sS'tempGood'
p4098
I0
stp4099
Rp4100
(dp4101
g1028
g7
sbssI133
(dp4102
I0
g0
(g1015
g1016
(dp4103
g4092
g599
sg4093
I1
sg4094
I0
sg4095
I0
sg4096
I3
sg4097
I0
sg4098
I0
stp4104
Rp4105
(dp4106
g1028
g7
sbsssI130
(dp4107
I128
(dp4108
I0
g0
(g1015
g1016
(dp4109
S'loc'
p4110
g599
sS'noHXfreeze'
p4111
I1
sS'tempCold'
p4112
I0
sS'level'
p4113
I1
sS'trackfl'
p4114
I3
sS'tempHot'
p4115
I0
sS'tempGood'
p4116
I0
stp4117
Rp4118
(dp4119
g1028
g7
sbssI133
(dp4120
I0
g0
(g1015
g1016
(dp4121
g4110
g599
sg4111
I1
sg4112
I0
sg4113
I1
sg4114
I3
sg4115
I0
sg4116
I0
stp4122
Rp4123
(dp4124
g1028
g7
sbsssI131
(dp4125
I132
(dp4126
I0
g0
(g1015
g1016
(dp4127
S'loc'
p4128
g780
sS'noHXfreeze'
p4129
I0
sS'tempCold'
p4130
I0
sS'level'
p4131
I2
sS'trackfl'
p4132
I3
sS'tempHot'
p4133
I0
sS'tempGood'
p4134
I0
stp4135
Rp4136
(dp4137
g1028
g7
sbsssI132
(dp4138
I128
(dp4139
I0
g0
(g1015
g1016
(dp4140
S'loc'
p4141
g599
sS'noHXfreeze'
p4142
I1
sS'tempCold'
p4143
I0
sS'level'
p4144
I2
sS'trackfl'
p4145
I3
sS'tempHot'
p4146
I0
sS'tempGood'
p4147
I0
stp4148
Rp4149
(dp4150
g1028
g7
sbssI133
(dp4151
I0
g0
(g1015
g1016
(dp4152
g4141
g599
sg4142
I1
sg4143
I0
sg4144
I2
sg4145
I3
sg4146
I0
sg4147
I0
stp4153
Rp4154
(dp4155
g1028
g7
sbsssI133
(dp4156
I129
(dp4157
I0
g0
(g1015
g1016
(dp4158
S'loc'
p4159
g278
sS'noHXfreeze'
p4160
I0
sS'tempCold'
p4161
I0
sS'level'
p4162
I2
sS'trackfl'
p4163
I3
sS'tempHot'
p4164
I0
sS'tempGood'
p4165
I0
stp4166
Rp4167
(dp4168
g1028
g7
sbssI130
(dp4169
I0
g0
(g1015
g1016
(dp4170
g4159
g278
sg4160
I0
sg4161
I0
sg4162
I2
sg4163
I3
sg4164
I0
sg4165
I0
stp4171
Rp4172
(dp4173
g1028
g7
sbssI6
(dp4174
I0
g0
(g1015
g1016
(dp4175
g4159
g278
sg4160
I0
sg4161
I0
sg4162
I2
sg4163
I3
sg4164
I0
sg4165
I0
stp4176
Rp4177
(dp4178
g1028
g7
sbssI135
(dp4179
I0
g0
(g1015
g1016
(dp4180
g4159
g278
sg4160
I0
sg4161
I0
sg4162
I2
sg4163
I3
sg4164
I0
sg4165
I0
stp4181
Rp4182
(dp4183
g1028
g7
sbssI8
(dp4184
I0
g0
(g1015
g1016
(dp4185
g4159
g278
sg4160
I0
sg4161
I0
sg4162
I2
sg4163
I3
sg4164
I0
sg4165
I0
stp4186
Rp4187
(dp4188
g1028
g7
sbssI10
(dp4189
I0
g0
(g1015
g1016
(dp4190
g4159
g278
sg4160
I0
sg4161
I0
sg4162
I2
sg4163
I3
sg4164
I0
sg4165
I0
stp4191
Rp4192
(dp4193
g1028
g7
sbsssI134
(dp4194
I129
(dp4195
I0
g0
(g1015
g1016
(dp4196
S'loc'
p4197
g278
sS'noHXfreeze'
p4198
I0
sS'tempCold'
p4199
I0
sS'level'
p4200
I0
sS'trackfl'
p4201
I3
sS'tempHot'
p4202
I0
sS'tempGood'
p4203
I0
stp4204
Rp4205
(dp4206
g1028
g7
sbssI130
(dp4207
I0
g0
(g1015
g1016
(dp4208
g4197
g278
sg4198
I0
sg4199
I0
sg4200
I0
sg4201
I3
sg4202
I0
sg4203
I0
stp4209
Rp4210
(dp4211
g1028
g7
sbssI132
(dp4212
I0
g0
(g1015
g1016
(dp4213
g4197
g278
sg4198
I0
sg4199
I0
sg4200
I0
sg4201
I3
sg4202
I0
sg4203
I0
stp4214
Rp4215
(dp4216
g1028
g7
sbssI6
(dp4217
I0
g0
(g1015
g1016
(dp4218
g4197
g278
sg4198
I0
sg4199
I0
sg4200
I0
sg4201
I3
sg4202
I0
sg4203
I0
stp4219
Rp4220
(dp4221
g1028
g7
sbssI135
(dp4222
I0
g0
(g1015
g1016
(dp4223
g4197
g278
sg4198
I0
sg4199
I0
sg4200
I0
sg4201
I3
sg4202
I0
sg4203
I0
stp4224
Rp4225
(dp4226
g1028
g7
sbssI8
(dp4227
I0
g0
(g1015
g1016
(dp4228
g4197
g278
sg4198
I0
sg4199
I0
sg4200
I0
sg4201
I3
sg4202
I0
sg4203
I0
stp4229
Rp4230
(dp4231
g1028
g7
sbssI10
(dp4232
I0
g0
(g1015
g1016
(dp4233
g4197
g278
sg4198
I0
sg4199
I0
sg4200
I0
sg4201
I3
sg4202
I0
sg4203
I0
stp4234
Rp4235
(dp4236
g1028
g7
sbssI120
(dp4237
I0
g0
(g1015
g1016
(dp4238
g4197
g278
sg4198
I0
sg4199
I0
sg4200
I0
sg4201
I3
sg4202
I0
sg4203
I0
stp4239
Rp4240
(dp4241
g1028
g7
sbssI158
(dp4242
I0
g0
(g1015
g1016
(dp4243
g4197
g278
sg4198
I0
sg4199
I0
sg4200
I0
sg4201
I3
sg4202
I0
sg4203
I0
stp4244
Rp4245
(dp4246
g1028
g7
sbsssI135
(dp4247
I136
(dp4248
I0
g0
(g1015
g1016
(dp4249
S'loc'
p4250
g538
sS'noHXfreeze'
p4251
I0
sS'tempCold'
p4252
I0
sS'level'
p4253
I1
sS'trackfl'
p4254
I3
sS'tempHot'
p4255
I0
sS'tempGood'
p4256
I0
stp4257
Rp4258
(dp4259
g1028
g7
sbsssI136
(dp4260
I138
(dp4261
I0
g0
(g1015
g1016
(dp4262
S'loc'
p4263
g595
sS'noHXfreeze'
p4264
I0
sS'tempCold'
p4265
I0
sS'level'
p4266
I1
sS'trackfl'
p4267
I3
sS'tempHot'
p4268
I0
sS'tempGood'
p4269
I0
stp4270
Rp4271
(dp4272
g1028
g7
sbssI155
(dp4273
I0
g0
(g1015
g1016
(dp4274
g4263
g595
sg4264
I0
sg4265
I0
sg4266
I1
sg4267
I3
sg4268
I0
sg4269
I0
stp4275
Rp4276
(dp4277
g1028
g7
sbsssI137
(dp4278
I139
(dp4279
I0
g0
(g1015
g1016
(dp4280
S'loc'
p4281
g596
sS'noHXfreeze'
p4282
I0
sS'tempCold'
p4283
I0
sS'level'
p4284
I2
sS'trackfl'
p4285
I3
sS'tempHot'
p4286
I0
sS'tempGood'
p4287
I0
stp4288
Rp4289
(dp4290
g1028
g7
sbsssI138
(dp4291
I139
(dp4292
I0
g0
(g1015
g1016
(dp4293
S'loc'
p4294
g596
sS'noHXfreeze'
p4295
I0
sS'tempCold'
p4296
I0
sS'level'
p4297
I1
sS'trackfl'
p4298
I3
sS'tempHot'
p4299
I0
sS'tempGood'
p4300
I0
stp4301
Rp4302
(dp4303
g1028
g7
sbsssI139
(dp4304
I140
(dp4305
I0
g0
(g1015
g1016
(dp4306
S'loc'
p4307
g781
sS'noHXfreeze'
p4308
I1
sS'tempCold'
p4309
I0
sS'level'
p4310
I2
sS'trackfl'
p4311
I3
sS'tempHot'
p4312
I0
sS'tempGood'
p4313
I0
stp4314
Rp4315
(dp4316
g1028
g7
sbssI141
(dp4317
I0
g0
(g1015
g1016
(dp4318
g4307
g781
sg4308
I1
sg4309
I0
sg4310
I2
sg4311
I3
sg4312
I0
sg4313
I0
stp4319
Rp4320
(dp4321
g1028
g7
sbssI142
(dp4322
I0
g0
(g1015
g1016
(dp4323
g4307
g781
sg4308
I1
sg4309
I0
sg4310
I2
sg4311
I3
sg4312
I0
sg4313
I0
stp4324
Rp4325
(dp4326
g1028
g7
sbsssI140
(dp4327
I9
(dp4328
I0
g0
(g1015
g1016
(dp4329
S'loc'
p4330
g596
sS'noHXfreeze'
p4331
I0
sS'tempCold'
p4332
I0
sS'level'
p4333
I2
sS'trackfl'
p4334
I3
sS'tempHot'
p4335
I0
sS'tempGood'
p4336
I0
stp4337
Rp4338
(dp4339
g1028
g7
sbssI11
(dp4340
I0
g0
(g1015
g1016
(dp4341
g4330
g596
sg4331
I0
sg4332
I0
sg4333
I2
sg4334
I3
sg4335
I0
sg4336
I0
stp4342
Rp4343
(dp4344
g1028
g7
sbssI143
(dp4345
I0
g0
(g1015
g1016
(dp4346
g4330
g596
sg4331
I0
sg4332
I0
sg4333
I2
sg4334
I3
sg4335
I0
sg4336
I0
stp4347
Rp4348
(dp4349
g1028
g7
sbssI7
(dp4350
I0
g0
(g1015
g1016
(dp4351
g4330
g596
sg4331
I0
sg4332
I0
sg4333
I2
sg4334
I3
sg4335
I0
sg4336
I0
stp4352
Rp4353
(dp4354
g1028
g7
sbsssI141
(dp4355
I11
(dp4356
I0
g0
(g1015
g1016
(dp4357
S'loc'
p4358
g596
sS'noHXfreeze'
p4359
I0
sS'tempCold'
p4360
I0
sS'level'
p4361
I1
sS'trackfl'
p4362
I3
sS'tempHot'
p4363
I0
sS'tempGood'
p4364
I0
stp4365
Rp4366
(dp4367
g1028
g7
sbssI143
(dp4368
I0
g0
(g1015
g1016
(dp4369
g4358
g596
sg4359
I0
sg4360
I0
sg4361
I1
sg4362
I3
sg4363
I0
sg4364
I0
stp4370
Rp4371
(dp4372
g1028
g7
sbssI7
(dp4373
I0
g0
(g1015
g1016
(dp4374
g4358
g596
sg4359
I0
sg4360
I0
sg4361
I1
sg4362
I3
sg4363
I0
sg4364
I0
stp4375
Rp4376
(dp4377
g1028
g7
sbsssI142
(dp4378
I11
(dp4379
I0
g0
(g1015
g1016
(dp4380
S'loc'
p4381
g596
sS'noHXfreeze'
p4382
I0
sS'tempCold'
p4383
I0
sS'level'
p4384
I0
sS'trackfl'
p4385
I3
sS'tempHot'
p4386
I0
sS'tempGood'
p4387
I0
stp4388
Rp4389
(dp4390
g1028
g7
sbssI143
(dp4391
I0
g0
(g1015
g1016
(dp4392
g4381
g596
sg4382
I0
sg4383
I0
sg4384
I0
sg4385
I3
sg4386
I0
sg4387
I0
stp4393
Rp4394
(dp4395
g1028
g7
sbsssI143
(dp4396
I3
(dp4397
I0
g0
(g1015
g1016
(dp4398
S'loc'
p4399
g598
sS'noHXfreeze'
p4400
I0
sS'tempCold'
p4401
I0
sS'level'
p4402
I2
sS'trackfl'
p4403
I3
sS'tempHot'
p4404
I0
sS'tempGood'
p4405
I0
stp4406
Rp4407
(dp4408
g1028
g7
sbssI136
(dp4409
I0
g0
(g1015
g1016
(dp4410
g4399
g598
sg4400
I0
sg4401
I0
sg4402
I2
sg4403
I3
sg4404
I0
sg4405
I0
stp4411
Rp4412
(dp4413
g1028
g7
sbssI138
(dp4414
I0
g0
(g1015
g1016
(dp4415
g4399
g598
sg4400
I0
sg4401
I0
sg4402
I2
sg4403
I3
sg4404
I0
sg4405
I0
stp4416
Rp4417
(dp4418
g1028
g7
sbssI12
(dp4419
I0
g0
(g1015
g1016
(dp4420
g4399
g598
sg4400
I0
sg4401
I0
sg4402
I2
sg4403
I3
sg4404
I0
sg4405
I0
stp4421
Rp4422
(dp4423
g1028
g7
sbssI13
(dp4424
I0
g0
(g1015
g1016
(dp4425
g4399
g598
sg4400
I0
sg4401
I0
sg4402
I2
sg4403
I3
sg4404
I0
sg4405
I0
stp4426
Rp4427
(dp4428
g1028
g7
sbssI144
(dp4429
I0
g0
(g1015
g1016
(dp4430
g4399
g598
sg4400
I0
sg4401
I0
sg4402
I2
sg4403
I3
sg4404
I0
sg4405
I0
stp4431
Rp4432
(dp4433
g1028
g7
sbssI145
(dp4434
I0
g0
(g1015
g1016
(dp4435
g4399
g598
sg4400
I0
sg4401
I0
sg4402
I2
sg4403
I3
sg4404
I0
sg4405
I0
stp4436
Rp4437
(dp4438
g1028
g7
sbssI155
(dp4439
I0
g0
(g1015
g1016
(dp4440
g4399
g598
sg4400
I0
sg4401
I0
sg4402
I2
sg4403
I3
sg4404
I0
sg4405
I0
stp4441
Rp4442
(dp4443
g1028
g7
sbsssI144
(dp4444
I3
(dp4445
I0
g0
(g1015
g1016
(dp4446
S'loc'
p4447
g598
sS'noHXfreeze'
p4448
I0
sS'tempCold'
p4449
I0
sS'level'
p4450
I0
sS'trackfl'
p4451
I3
sS'tempHot'
p4452
I0
sS'tempGood'
p4453
I0
stp4454
Rp4455
(dp4456
g1028
g7
sbssI136
(dp4457
I0
g0
(g1015
g1016
(dp4458
g4447
g598
sg4448
I0
sg4449
I0
sg4450
I0
sg4451
I3
sg4452
I0
sg4453
I0
stp4459
Rp4460
(dp4461
g1028
g7
sbssI137
(dp4462
I0
g0
(g1015
g1016
(dp4463
g4447
g598
sg4448
I0
sg4449
I0
sg4450
I0
sg4451
I3
sg4452
I0
sg4453
I0
stp4464
Rp4465
(dp4466
g1028
g7
sbssI138
(dp4467
I0
g0
(g1015
g1016
(dp4468
g4447
g598
sg4448
I0
sg4449
I0
sg4450
I0
sg4451
I3
sg4452
I0
sg4453
I0
stp4469
Rp4470
(dp4471
g1028
g7
sbssI145
(dp4472
I0
g0
(g1015
g1016
(dp4473
g4447
g598
sg4448
I0
sg4449
I0
sg4450
I0
sg4451
I3
sg4452
I0
sg4453
I0
stp4474
Rp4475
(dp4476
g1028
g7
sbssI131
(dp4477
I0
g0
(g1015
g1016
(dp4478
g4447
g598
sg4448
I0
sg4449
I0
sg4450
I0
sg4451
I3
sg4452
I0
sg4453
I0
stp4479
Rp4480
(dp4481
g1028
g7
sbssI153
(dp4482
I0
g0
(g1015
g1016
(dp4483
g4447
g598
sg4448
I0
sg4449
I0
sg4450
I0
sg4451
I3
sg4452
I0
sg4453
I0
stp4484
Rp4485
(dp4486
g1028
g7
sbssI154
(dp4487
I0
g0
(g1015
g1016
(dp4488
g4447
g598
sg4448
I0
sg4449
I0
sg4450
I0
sg4451
I3
sg4452
I0
sg4453
I0
stp4489
Rp4490
(dp4491
g1028
g7
sbssI155
(dp4492
I0
g0
(g1015
g1016
(dp4493
g4447
g598
sg4448
I0
sg4449
I0
sg4450
I0
sg4451
I3
sg4452
I0
sg4453
I0
stp4494
Rp4495
(dp4496
g1028
g7
sbssI156
(dp4497
I0
g0
(g1015
g1016
(dp4498
g4447
g598
sg4448
I0
sg4449
I0
sg4450
I0
sg4451
I3
sg4452
I0
sg4453
I0
stp4499
Rp4500
(dp4501
g1028
g7
sbsssI145
(dp4502
I146
(dp4503
I0
g0
(g1015
g1016
(dp4504
S'loc'
p4505
g84
sS'noHXfreeze'
p4506
I0
sS'tempCold'
p4507
I0
sS'level'
p4508
I1
sS'trackfl'
p4509
I3
sS'tempHot'
p4510
I0
sS'tempGood'
p4511
I0
stp4512
Rp4513
(dp4514
g1028
g7
sbsssI146
(dp4515
I148
(dp4516
I0
g0
(g1015
g1016
(dp4517
S'loc'
p4518
g864
sS'noHXfreeze'
p4519
I0
sS'tempCold'
p4520
I0
sS'level'
p4521
I1
sS'trackfl'
p4522
I3
sS'tempHot'
p4523
I0
sS'tempGood'
p4524
I0
stp4525
Rp4526
(dp4527
g1028
g7
sbssI151
(dp4528
I0
g0
(g1015
g1016
(dp4529
g4518
g864
sg4519
I0
sg4520
I0
sg4521
I1
sg4522
I3
sg4523
I0
sg4524
I0
stp4530
Rp4531
(dp4532
g1028
g7
sbsssI147
(dp4533
I152
(dp4534
I0
g0
(g1015
g1016
(dp4535
S'loc'
p4536
g379
sS'noHXfreeze'
p4537
I0
sS'tempCold'
p4538
I1
sS'level'
p4539
I0
sS'trackfl'
p4540
I2
sS'tempHot'
p4541
I0
sS'tempGood'
p4542
I0
stp4543
Rp4544
(dp4545
g1028
g7
sbssI146
(dp4546
I0
g0
(g1015
g1016
(dp4547
g4536
g379
sg4537
I0
sg4538
I1
sg4539
I0
sg4540
I2
sg4541
I0
sg4542
I0
stp4548
Rp4549
(dp4550
g1028
g7
sbssI148
(dp4551
I0
g0
(g1015
g1016
(dp4552
g4536
g379
sg4537
I0
sg4538
I1
sg4539
I0
sg4540
I2
sg4541
I0
sg4542
I0
stp4553
Rp4554
(dp4555
g1028
g7
sbssI149
(dp4556
I0
g0
(g1015
g1016
(dp4557
g4536
g379
sg4537
I0
sg4538
I1
sg4539
I0
sg4540
I2
sg4541
I0
sg4542
I0
stp4558
Rp4559
(dp4560
g1028
g7
sbssI151
(dp4561
I0
g0
(g1015
g1016
(dp4562
g4536
g379
sg4537
I0
sg4538
I1
sg4539
I0
sg4540
I2
sg4541
I0
sg4542
I0
stp4563
Rp4564
(dp4565
g1028
g7
sbsssI148
(dp4566
I4
(dp4567
I0
g0
(g1015
g1016
(dp4568
S'loc'
p4569
g380
sS'noHXfreeze'
p4570
I1
sS'tempCold'
p4571
I1
sS'level'
p4572
I1
sS'trackfl'
p4573
I2
sS'tempHot'
p4574
I0
sS'tempGood'
p4575
I0
stp4576
Rp4577
(dp4578
g1028
g7
sbssI150
(dp4579
I0
g0
(g1015
g1016
(dp4580
g4569
g380
sg4570
I1
sg4571
I1
sg4572
I1
sg4573
I2
sg4574
I0
sg4575
I0
stp4581
Rp4582
(dp4583
g1028
g7
sbsssI149
(dp4584
I4
(dp4585
I0
g0
(g1015
g1016
(dp4586
S'loc'
p4587
g380
sS'noHXfreeze'
p4588
I1
sS'tempCold'
p4589
I1
sS'level'
p4590
I2
sS'trackfl'
p4591
I2
sS'tempHot'
p4592
I0
sS'tempGood'
p4593
I0
stp4594
Rp4595
(dp4596
g1028
g7
sbssI150
(dp4597
I0
g0
(g1015
g1016
(dp4598
g4587
g380
sg4588
I1
sg4589
I1
sg4590
I2
sg4591
I2
sg4592
I0
sg4593
I0
stp4599
Rp4600
(dp4601
g1028
g7
sbsssI150
(dp4602
I2
(dp4603
I0
g0
(g1015
g1016
(dp4604
S'loc'
p4605
g379
sS'noHXfreeze'
p4606
I0
sS'tempCold'
p4607
I1
sS'level'
p4608
I2
sS'trackfl'
p4609
I2
sS'tempHot'
p4610
I0
sS'tempGood'
p4611
I0
stp4612
Rp4613
(dp4614
g1028
g7
sbssI5
(dp4615
I0
g0
(g1015
g1016
(dp4616
g4605
g379
sg4606
I0
sg4607
I1
sg4608
I2
sg4609
I2
sg4610
I0
sg4611
I0
stp4617
Rp4618
(dp4619
g1028
g7
sbssI146
(dp4620
I0
g0
(g1015
g1016
(dp4621
g4605
g379
sg4606
I0
sg4607
I1
sg4608
I2
sg4609
I2
sg4610
I0
sg4611
I0
stp4622
Rp4623
(dp4624
g1028
g7
sbssI147
(dp4625
I0
g0
(g1015
g1016
(dp4626
g4605
g379
sg4606
I0
sg4607
I1
sg4608
I2
sg4609
I2
sg4610
I0
sg4611
I0
stp4627
Rp4628
(dp4629
g1028
g7
sbssI148
(dp4630
I0
g0
(g1015
g1016
(dp4631
g4605
g379
sg4606
I0
sg4607
I1
sg4608
I2
sg4609
I2
sg4610
I0
sg4611
I0
stp4632
Rp4633
(dp4634
g1028
g7
sbssI149
(dp4635
I0
g0
(g1015
g1016
(dp4636
g4605
g379
sg4606
I0
sg4607
I1
sg4608
I2
sg4609
I2
sg4610
I0
sg4611
I0
stp4637
Rp4638
(dp4639
g1028
g7
sbssI151
(dp4640
I0
g0
(g1015
g1016
(dp4641
g4605
g379
sg4606
I0
sg4607
I1
sg4608
I2
sg4609
I2
sg4610
I0
sg4611
I0
stp4642
Rp4643
(dp4644
g1028
g7
sbssI152
(dp4645
I0
g0
(g1015
g1016
(dp4646
g4605
g379
sg4606
I0
sg4607
I1
sg4608
I2
sg4609
I2
sg4610
I0
sg4611
I0
stp4647
Rp4648
(dp4649
g1028
g7
sbsssI151
(dp4650
I152
(dp4651
I0
g0
(g1015
g1016
(dp4652
S'loc'
p4653
g379
sS'noHXfreeze'
p4654
I0
sS'tempCold'
p4655
I1
sS'level'
p4656
I1
sS'trackfl'
p4657
I2
sS'tempHot'
p4658
I0
sS'tempGood'
p4659
I0
stp4660
Rp4661
(dp4662
g1028
g7
sbssI149
(dp4663
I0
g0
(g1015
g1016
(dp4664
g4653
g379
sg4654
I0
sg4655
I1
sg4656
I1
sg4657
I2
sg4658
I0
sg4659
I0
stp4665
Rp4666
(dp4667
g1028
g7
sbsssI152
(dp4668
I153
(dp4669
I0
g0
(g1015
g1016
(dp4670
S'loc'
p4671
g864
sS'noHXfreeze'
p4672
I0
sS'tempCold'
p4673
I0
sS'level'
p4674
I2
sS'trackfl'
p4675
I3
sS'tempHot'
p4676
I0
sS'tempGood'
p4677
I0
stp4678
Rp4679
(dp4680
g1028
g7
sbsssI153
(dp4681
I137
(dp4682
I0
g0
(g1015
g1016
(dp4683
S'loc'
p4684
g84
sS'noHXfreeze'
p4685
I0
sS'tempCold'
p4686
I0
sS'level'
p4687
I2
sS'trackfl'
p4688
I3
sS'tempHot'
p4689
I0
sS'tempGood'
p4690
I0
stp4691
Rp4692
(dp4693
g1028
g7
sbssI154
(dp4694
I0
g0
(g1015
g1016
(dp4695
g4684
g84
sg4685
I0
sg4686
I0
sg4687
I2
sg4688
I3
sg4689
I0
sg4690
I0
stp4696
Rp4697
(dp4698
g1028
g7
sbsssI154
(dp4699
I131
(dp4700
I0
g0
(g1015
g1016
(dp4701
S'loc'
p4702
g598
sS'noHXfreeze'
p4703
I0
sS'tempCold'
p4704
I0
sS'level'
p4705
I2
sS'trackfl'
p4706
I3
sS'tempHot'
p4707
I0
sS'tempGood'
p4708
I0
stp4709
Rp4710
(dp4711
g1028
g7
sbssI156
(dp4712
I0
g0
(g1015
g1016
(dp4713
g4702
g598
sg4703
I0
sg4704
I0
sg4705
I2
sg4706
I3
sg4707
I0
sg4708
I0
stp4714
Rp4715
(dp4716
g1028
g7
sbsssI155
(dp4717
I131
(dp4718
I0
g0
(g1015
g1016
(dp4719
S'loc'
p4720
g598
sS'noHXfreeze'
p4721
I0
sS'tempCold'
p4722
I0
sS'level'
p4723
I1
sS'trackfl'
p4724
I3
sS'tempHot'
p4725
I0
sS'tempGood'
p4726
I0
stp4727
Rp4728
(dp4729
g1028
g7
sbssI137
(dp4730
I0
g0
(g1015
g1016
(dp4731
g4720
g598
sg4721
I0
sg4722
I0
sg4723
I1
sg4724
I3
sg4725
I0
sg4726
I0
stp4732
Rp4733
(dp4734
g1028
g7
sbssI145
(dp4735
I0
g0
(g1015
g1016
(dp4736
g4720
g598
sg4721
I0
sg4722
I0
sg4723
I1
sg4724
I3
sg4725
I0
sg4726
I0
stp4737
Rp4738
(dp4739
g1028
g7
sbssI153
(dp4740
I0
g0
(g1015
g1016
(dp4741
g4720
g598
sg4721
I0
sg4722
I0
sg4723
I1
sg4724
I3
sg4725
I0
sg4726
I0
stp4742
Rp4743
(dp4744
g1028
g7
sbssI154
(dp4745
I0
g0
(g1015
g1016
(dp4746
g4720
g598
sg4721
I0
sg4722
I0
sg4723
I1
sg4724
I3
sg4725
I0
sg4726
I0
stp4747
Rp4748
(dp4749
g1028
g7
sbssI156
(dp4750
I0
g0
(g1015
g1016
(dp4751
g4720
g598
sg4721
I0
sg4722
I0
sg4723
I1
sg4724
I3
sg4725
I0
sg4726
I0
stp4752
Rp4753
(dp4754
g1028
g7
sbsssI156
(dp4755
I120
(dp4756
I0
g0
(g1015
g1016
(dp4757
S'loc'
p4758
g595
sS'noHXfreeze'
p4759
I0
sS'tempCold'
p4760
I0
sS'level'
p4761
I2
sS'trackfl'
p4762
I3
sS'tempHot'
p4763
I0
sS'tempGood'
p4764
I0
stp4765
Rp4766
(dp4767
g1028
g7
sbssI158
(dp4768
I0
g0
(g1015
g1016
(dp4769
g4758
g595
sg4759
I0
sg4760
I0
sg4761
I2
sg4762
I3
sg4763
I0
sg4764
I0
stp4770
Rp4771
(dp4772
g1028
g7
sbsssI157
(dp4773
I130
(dp4774
I0
g0
(g1015
g1016
(dp4775
S'loc'
p4776
g278
sS'noHXfreeze'
p4777
I0
sS'tempCold'
p4778
I0
sS'level'
p4779
I1
sS'trackfl'
p4780
I3
sS'tempHot'
p4781
I0
sS'tempGood'
p4782
I0
stp4783
Rp4784
(dp4785
g1028
g7
sbssI132
(dp4786
I0
g0
(g1015
g1016
(dp4787
g4776
g278
sg4777
I0
sg4778
I0
sg4779
I1
sg4780
I3
sg4781
I0
sg4782
I0
stp4788
Rp4789
(dp4790
g1028
g7
sbssI135
(dp4791
I0
g0
(g1015
g1016
(dp4792
g4776
g278
sg4777
I0
sg4778
I0
sg4779
I1
sg4780
I3
sg4781
I0
sg4782
I0
stp4793
Rp4794
(dp4795
g1028
g7
sbssI8
(dp4796
I0
g0
(g1015
g1016
(dp4797
g4776
g278
sg4777
I0
sg4778
I0
sg4779
I1
sg4780
I3
sg4781
I0
sg4782
I0
stp4798
Rp4799
(dp4800
g1028
g7
sbssI120
(dp4801
I0
g0
(g1015
g1016
(dp4802
g4776
g278
sg4777
I0
sg4778
I0
sg4779
I1
sg4780
I3
sg4781
I0
sg4782
I0
stp4803
Rp4804
(dp4805
g1028
g7
sbssI158
(dp4806
I0
g0
(g1015
g1016
(dp4807
g4776
g278
sg4777
I0
sg4778
I0
sg4779
I1
sg4780
I3
sg4781
I0
sg4782
I0
stp4808
Rp4809
(dp4810
g1028
g7
sbsssI158
(dp4811
I159
(dp4812
I0
g0
(g1015
g1016
(dp4813
S'loc'
p4814
g600
sS'noHXfreeze'
p4815
I0
sS'tempCold'
p4816
I0
sS'level'
p4817
I2
sS'trackfl'
p4818
I3
sS'tempHot'
p4819
I0
sS'tempGood'
p4820
I0
stp4821
Rp4822
(dp4823
g1028
g7
sbsssI159
(dp4824
I160
(dp4825
I0
g0
(g1015
g1016
(dp4826
S'loc'
p4827
g278
sS'noHXfreeze'
p4828
I0
sS'tempCold'
p4829
I0
sS'level'
p4830
I2
sS'trackfl'
p4831
I3
sS'tempHot'
p4832
I0
sS'tempGood'
p4833
I0
stp4834
Rp4835
(dp4836
g1028
g7
sbssI123
(dp4837
I0
g0
(g1015
g1016
(dp4838
g4827
g278
sg4828
I0
sg4829
I0
sg4830
I2
sg4831
I3
sg4832
I0
sg4833
I0
stp4839
Rp4840
(dp4841
g1028
g7
sbsssI160
(dp4842
I161
(dp4843
I0
g0
(g1015
g1016
(dp4844
S'loc'
p4845
g770
sS'noHXfreeze'
p4846
I0
sS'tempCold'
p4847
I0
sS'level'
p4848
I2
sS'trackfl'
p4849
I1
sS'tempHot'
p4850
I0
sS'tempGood'
p4851
I1
stp4852
Rp4853
(dp4854
g1028
g7
sbsssI161
(dp4855
I162
(dp4856
I0
g0
(g1015
g1016
(dp4857
S'loc'
p4858
g882
sS'noHXfreeze'
p4859
I0
sS'tempCold'
p4860
I0
sS'level'
p4861
I2
sS'trackfl'
p4862
I1
sS'tempHot'
p4863
I0
sS'tempGood'
p4864
I1
stp4865
Rp4866
(dp4867
g1028
g7
sbsssI162
(dp4868
I163
(dp4869
I0
g0
(g1015
g1016
(dp4870
S'loc'
p4871
g77
sS'noHXfreeze'
p4872
I0
sS'tempCold'
p4873
I0
sS'level'
p4874
I2
sS'trackfl'
p4875
I1
sS'tempHot'
p4876
I0
sS'tempGood'
p4877
I1
stp4878
Rp4879
(dp4880
g1028
g7
sbssI110
(dp4881
I0
g0
(g1015
g1016
(dp4882
g4871
g77
sg4872
I0
sg4873
I0
sg4874
I2
sg4875
I1
sg4876
I0
sg4877
I1
stp4883
Rp4884
(dp4885
g1028
g7
sbsssI163
(dp4886
I164
(dp4887
I0
g0
(g1015
g1016
(dp4888
S'loc'
p4889
g682
sS'noHXfreeze'
p4890
I0
sS'tempCold'
p4891
I0
sS'level'
p4892
I2
sS'trackfl'
p4893
I1
sS'tempHot'
p4894
I0
sS'tempGood'
p4895
I1
stp4896
Rp4897
(dp4898
g1028
g7
sbsssI164
(dp4899
I165
(dp4900
I0
g0
(g1015
g1016
(dp4901
S'loc'
p4902
g71
sS'noHXfreeze'
p4903
I0
sS'tempCold'
p4904
I0
sS'level'
p4905
I2
sS'trackfl'
p4906
I1
sS'tempHot'
p4907
I0
sS'tempGood'
p4908
I1
stp4909
Rp4910
(dp4911
g1028
g7
sbssI93
(dp4912
I0
g0
(g1015
g1016
(dp4913
g4902
g71
sg4903
I0
sg4904
I0
sg4905
I2
sg4906
I1
sg4907
I0
sg4908
I1
stp4914
Rp4915
(dp4916
g1028
g7
sbssI111
(dp4917
I0
g0
(g1015
g1016
(dp4918
g4902
g71
sg4903
I0
sg4904
I0
sg4905
I2
sg4906
I1
sg4907
I0
sg4908
I1
stp4919
Rp4920
(dp4921
g1028
g7
sbsssI165
(dp4922
I166
(dp4923
I0
g0
(g1015
g1016
(dp4924
S'loc'
p4925
g416
sS'noHXfreeze'
p4926
I0
sS'tempCold'
p4927
I0
sS'level'
p4928
I2
sS'trackfl'
p4929
I1
sS'tempHot'
p4930
I0
sS'tempGood'
p4931
I1
stp4932
Rp4933
(dp4934
g1028
g7
sbsssI166
(dp4935
I168
(dp4936
I0
g0
(g1015
g1016
(dp4937
S'loc'
p4938
g370
sS'noHXfreeze'
p4939
I1
sS'tempCold'
p4940
I0
sS'level'
p4941
I2
sS'trackfl'
p4942
I1
sS'tempHot'
p4943
I0
sS'tempGood'
p4944
I1
stp4945
Rp4946
(dp4947
g1028
g7
sbsssI167
(dp4948
I168
(dp4949
I0
g0
(g1015
g1016
(dp4950
S'loc'
p4951
g370
sS'noHXfreeze'
p4952
I1
sS'tempCold'
p4953
I0
sS'level'
p4954
I1
sS'trackfl'
p4955
I1
sS'tempHot'
p4956
I0
sS'tempGood'
p4957
I1
stp4958
Rp4959
(dp4960
g1028
g7
sbssg1330
(dp4961
I0
g0
(g1015
g1016
(dp4962
g4951
g370
sg4952
I1
sg4953
I0
sg4954
I1
sg4955
I1
sg4956
I0
sg4957
I1
stp4963
Rp4964
(dp4965
g1028
g7
sbsssI168
(dp4966
g1330
(dp4967
I0
g0
(g1015
g1016
(dp4968
S'loc'
p4969
g68
sS'noHXfreeze'
p4970
I0
sS'tempCold'
p4971
I0
sS'level'
p4972
I1
sS'trackfl'
p4973
I1
sS'tempHot'
p4974
I0
sS'tempGood'
p4975
I1
stp4976
Rp4977
(dp4978
g1028
g7
sbsssg1330
(dp4979
ssS'_state_dot_label_format'
p4980
(dp4981
S'separator'
p4982
S'\n'
p4983
sS'type?label'
p4984
S':'
p4985
ssS'_transition_dot_label_format'
p4986
(dp4987
g8
S'/loc'
p4988
sg973
S'/noHXfreeze'
p4989
sg4984
g4985
sg977
g977
sg981
S'/tempCold'
p4990
sg985
S'/tempGood'
p4991
sg989
S'/trackfl'
p4992
sg4982
g4983
sg993
S'/tempHot'
p4993
ssS'adj'
p4994
(dp4995
I0
(dp4996
I1
g1030
sI98
g3187
sI99
g3215
ssI1
(dp4997
I92
g3064
sI101
g3298
sI102
g3314
ssI2
(dp4998
I4
g1094
sI5
g1117
sI150
g4603
ssI3
(dp4999
I144
g4445
sI11
g1232
sI143
g4397
ssI4
(dp5000
I2
g1063
sI148
g4567
sI149
g4585
ssI5
(dp5001
I3
g1081
sI4
g1111
sI150
g4615
ssI6
(dp5002
I128
g4084
sI133
g4174
sI134
g4217
ssI7
(dp5003
I140
g4350
sI141
g4373
sI6
g1135
ssI8
(dp5004
I157
g4796
sI134
g4227
sI133
g4184
ssI9
(dp5005
I8
g1171
sI140
g4328
sI13
g1266
ssI10
(dp5006
I128
g4079
sI133
g4189
sI134
g4232
ssI11
(dp5007
I140
g4340
sI141
g4356
sI142
g4379
ssI12
(dp5008
I10
g1207
sI11
g1237
sI143
g4419
ssI13
(dp5009
I11
g1242
sI12
g1260
sI143
g4424
ssI14
(dp5010
I115
g3770
sI116
g3808
sI117
g3841
ssI15
(dp5011
I112
g3691
sI113
g3724
sI114
g3752
ssI16
(dp5012
I112
g3669
sI113
g3697
sI114
g3730
ssI17
(dp5013
I106
g3426
sI107
g3506
sI108
g3554
ssI18
(dp5014
I88
g2932
sI89
g2982
sI90
g3023
ssI19
(dp5015
I18
g1362
sI99
g3257
sI98
g3199
ssI20
(dp5016
I80
g2805
sI89
g3007
sI79
g2747
ssI21
(dp5017
I49
g1997
sI69
g2467
sI79
g2752
ssI22
(dp5018
I41
g1848
sI34
g1672
sI33
g1644
ssI23
(dp5019
I27
g1536
sI36
g1723
sI22
g1429
ssI24
(dp5020
I27
g1541
sI36
g1701
sI23
g1442
ssI25
(dp5021
I41
g1821
sI34
g1677
sI59
g2222
ssI26
(dp5022
I25
g1468
sI27
g1546
sI29
g1570
ssI27
(dp5023
I26
g1498
sI37
g1746
sI38
g1779
ssI28
(dp5024
I41
g1843
sI34
g1682
sI59
g2227
ssI29
(dp5025
I26
g1503
sI37
g1751
sI38
g1784
ssI30
(dp5026
I27
g1551
sI28
g1557
sI29
g1587
ssI31
(dp5027
I49
g2007
sI51
g2038
sI52
g2071
ssI32
(dp5028
I34
g1650
sI61
g2266
sI31
g1606
ssI33
(dp5029
I32
g1619
sI34
g1662
sI61
g2278
ssI34
(dp5030
I59
g2200
sI61
g2283
sI54
g2090
ssI35
(dp5031
I41
g1838
sI34
g1667
sI33
g1632
ssI36
(dp5032
I27
g1514
sI29
g1582
sI30
g1593
ssI37
(dp5033
I27
g1526
sI35
g1688
sI36
g1713
ssI38
(dp5034
I24
g1455
sI27
g1531
sI36
g1718
ssI39
(dp5035
I26
g1508
sI37
g1756
sI38
g1789
ssI40
(dp5036
I26
g1481
sI37
g1729
sI38
g1762
ssI41
(dp5037
I26
g1493
sI37
g1741
sI38
g1774
ssI42
(dp5038
I40
g1808
sI41
g1833
sI39
g1795
ssI43
(dp5039
I42
g1854
sI59
g2212
sI60
g2243
ssI44
(dp5040
I56
g2148
sI57
g2176
sI43
g1872
ssI45
(dp5041
I49
g1970
sI66
g2393
sI52
g2066
ssI46
(dp5042
I56
g2153
sI45
g1908
sI62
g2311
ssI47
(dp5043
I49
g1982
sI66
g2398
sI52
g2061
ssI48
(dp5044
I80
g2790
sI77
g2634
sI79
g2737
ssI49
(dp5045
I66
g2403
sI67
g2414
sI68
g2437
ssI50
(dp5046
I80
g2800
sI76
g2611
sI77
g2651
ssI51
(dp5047
I49
g1987
sI50
g2013
sI52
g2044
ssI52
(dp5048
I48
g1957
sI49
g1992
sI66
g2408
ssI53
(dp5049
I49
g2002
sI51
g2026
sI52
g2056
ssI54
(dp5050
I59
g2217
sI61
g2293
sI47
g1944
ssI55
(dp5051
I62
g2316
sI54
g2102
sI53
g2077
ssI56
(dp5052
I44
g1885
sI46
g1921
sI55
g2108
ssI57
(dp5053
I44
g1897
sI46
g1933
sI55
g2120
ssI58
(dp5054
I44
g1902
sI46
g1938
sI55
g2125
ssI59
(dp5055
I56
g2143
sI57
g2171
sI58
g2182
ssI60
(dp5056
I56
g2131
sI57
g2159
sI58
g2194
ssI61
(dp5057
I42
g1866
sI59
g2232
sI60
g2255
ssI62
(dp5058
I59
g2237
sI60
g2260
sI61
g2288
ssI63
(dp5059
I72
g2561
sI78
g2699
sI71
g2523
ssI64
(dp5060
I72
g2529
sI78
g2667
sI71
g2491
ssI65
(dp5061
I72
g2541
sI78
g2679
sI71
g2503
ssI66
(dp5062
I64
g2340
sI65
g2358
sI63
g2322
ssI67
(dp5063
I64
g2352
sI65
g2370
sI63
g2334
ssI68
(dp5064
I66
g2376
sI67
g2426
sI62
g2299
ssI69
(dp5065
I72
g2546
sI78
g2684
sI71
g2508
ssI70
(dp5066
I66
g2388
sI67
g2431
sI68
g2449
ssI71
(dp5067
I69
g2472
sI70
g2478
sI79
g2717
ssI72
(dp5068
I80
g2758
sI77
g2646
sI79
g2722
ssI73
(dp5069
I72
g2551
sI78
g2689
sI71
g2513
ssI74
(dp5070
I73
g2567
sI89
g2967
sI79
g2727
ssI75
(dp5071
I80
g2770
sI89
g2972
sI85
g2873
ssI76
(dp5072
I80
g2775
sI75
g2598
sI77
g2656
ssI77
(dp5073
I80
g2780
sI74
g2592
sI79
g2732
ssI78
(dp5074
I80
g2785
sI76
g2623
sI77
g2661
ssI79
(dp5075
I72
g2556
sI78
g2694
sI71
g2518
ssI80
(dp5076
I21
g1416
sI69
g2455
sI79
g2705
ssI81
(dp5077
I80
g2795
sI89
g2977
sI79
g2742
ssI82
(dp5078
I102
g3341
sI94
g3095
sI103
g3379
ssI83
(dp5079
I82
g2834
sI102
g3346
sI103
g3384
ssI84
(dp5080
I89
g2987
sI90
g3040
sI83
g2847
ssI85
(dp5081
I89
g2992
sI90
g3045
sI84
g2860
ssI86
(dp5082
I80
g2810
sI89
g2997
sI85
g2885
ssI87
(dp5083
I80
g2815
sI89
g3002
sI76
g2628
ssI88
(dp5084
I20
g1398
sI86
g2891
sI87
g2909
ssI89
(dp5085
I20
g1410
sI86
g2903
sI87
g2921
ssI90
(dp5086
I88
g2949
sI81
g2821
sI89
g3012
ssI91
(dp5087
I88
g2944
sI89
g3017
sI90
g3035
ssI92
(dp5088
I91
g3051
sI101
g3303
sI102
g3351
ssI93
(dp5089
I108
g3559
sI107
g3511
sI164
g4912
ssI94
(dp5090
I93
g3082
sI102
g3356
sI103
g3389
ssI95
(dp5091
I102
g3361
sI94
g3107
sI103
g3394
ssI96
(dp5092
I1
g1042
sI99
g3227
sI95
g3113
ssI97
(dp5093
I1
g1057
sI99
g3242
sI95
g3125
ssI98
(dp5094
I96
g3136
sI97
g3171
sI19
g1375
ssI99
(dp5095
I96
g3148
sI97
g3176
sI19
g1387
ssI100
(dp5096
I96
g3153
sI97
g3181
sI19
g1392
ssI101
(dp5097
I98
g3204
sI99
g3232
sI100
g3268
ssI102
(dp5098
I98
g3209
sI99
g3237
sI100
g3280
ssI103
(dp5099
I92
g3076
sI101
g3308
sI102
g3326
ssI104
(dp5100
I101
g3286
sI102
g3331
sI103
g3367
ssI105
(dp5101
I104
g3400
sI106
g3448
sI107
g3481
ssI106
(dp5102
I109
g3582
sI110
g3615
sI111
g3643
ssI107
(dp5103
I109
g3587
sI110
g3620
sI111
g3648
ssI108
(dp5104
I105
g3413
sI106
g3438
sI107
g3486
ssI109
(dp5105
I106
g3443
sI107
g3491
sI108
g3539
ssI110
(dp5106
I162
g4881
sI107
g3496
sI108
g3544
ssI111
(dp5107
I108
g3549
sI107
g3501
sI164
g4917
ssI112
(dp5108
I109
g3565
sI110
g3598
sI111
g3653
ssI113
(dp5109
I109
g3577
sI110
g3610
sI111
g3658
ssI114
(dp5110
I109
g3592
sI110
g3625
sI111
g3663
ssI115
(dp5111
I112
g3681
sI113
g3714
sI114
g3742
ssI116
(dp5112
I112
g3686
sI113
g3719
sI114
g3747
ssI117
(dp5113
I16
g1343
sI17
g1349
sI15
g1317
ssI118
(dp5114
I115
g3758
sI116
g3813
sI117
g3829
ssI119
(dp5115
I118
g3847
sI126
g3998
sI125
g3975
ssI120
(dp5116
I156
g4756
sI157
g4801
sI134
g4237
ssI121
(dp5117
I120
g3878
sI126
g4003
sI127
g4041
ssI122
(dp5118
I121
g3891
sI116
g3818
sI14
g1301
ssI123
(dp5119
I127
g4046
sI126
g4008
sI159
g4837
ssI124
(dp5120
I122
g3904
sI126
g4013
sI127
g4051
ssI125
(dp5121
I123
g3917
sI124
g3947
sI119
g3860
ssI126
(dp5122
I123
g3929
sI124
g3952
sI119
g3872
ssI127
(dp5123
I115
g3775
sI116
g3823
sI14
g1311
ssI128
(dp5124
I129
g4090
sI130
g4108
sI132
g4139
ssI129
(dp5125
I128
g4067
sI133
g4157
sI134
g4195
ssI130
(dp5126
I157
g4774
sI134
g4207
sI133
g4169
ssI131
(dp5127
I144
g4477
sI154
g4700
sI155
g4718
ssI132
(dp5128
I131
g4126
sI157
g4786
sI134
g4212
ssI133
(dp5129
I129
g4102
sI130
g4120
sI132
g4151
ssI134
(dp5130
I125
g3970
sI126
g3981
sI127
g4029
ssI135
(dp5131
I157
g4791
sI134
g4222
sI133
g4179
ssI136
(dp5132
I144
g4457
sI135
g4248
sI143
g4409
ssI137
(dp5133
I144
g4462
sI153
g4682
sI155
g4730
ssI138
(dp5134
I144
g4467
sI136
g4261
sI143
g4414
ssI139
(dp5135
I137
g4279
sI138
g4292
sI13
g1278
ssI140
(dp5136
I9
g1184
sI139
g4305
sI7
g1148
ssI141
(dp5137
I9
g1196
sI139
g4317
sI7
g1160
ssI142
(dp5138
I9
g1201
sI139
g4322
sI7
g1165
ssI143
(dp5139
I140
g4345
sI141
g4368
sI142
g4391
ssI144
(dp5140
I11
g1220
sI12
g1248
sI143
g4429
ssI145
(dp5141
I144
g4472
sI155
g4735
sI143
g4434
ssI146
(dp5142
I145
g4503
sI147
g4546
sI150
g4620
ssI147
(dp5143
I4
g1106
sI5
g1129
sI150
g4625
ssI148
(dp5144
I146
g4516
sI147
g4551
sI150
g4630
ssI149
(dp5145
I147
g4556
sI150
g4635
sI151
g4663
ssI150
(dp5146
I2
g1075
sI148
g4579
sI149
g4597
ssI151
(dp5147
I146
g4528
sI147
g4561
sI150
g4640
ssI152
(dp5148
I147
g4534
sI150
g4645
sI151
g4651
ssI153
(dp5149
I144
g4482
sI152
g4669
sI155
g4740
ssI154
(dp5150
I144
g4487
sI153
g4694
sI155
g4745
ssI155
(dp5151
I144
g4492
sI136
g4273
sI143
g4439
ssI156
(dp5152
I144
g4497
sI154
g4712
sI155
g4750
ssI157
(dp5153
I125
g3958
sI126
g4018
sI127
g4056
ssI158
(dp5154
I156
g4768
sI157
g4806
sI134
g4242
ssI159
(dp5155
I126
g4023
sI158
g4812
sI127
g4061
ssI160
(dp5156
I116
g3781
sI14
g1284
sI159
g4825
ssI161
(dp5157
I160
g4843
sI116
g3793
sI14
g1296
ssI162
(dp5158
I161
g4856
sI116
g3798
sI14
g1306
ssI163
(dp5159
I162
g4869
sI107
g3454
sI108
g3517
ssI164
(dp5160
I107
g3466
sI108
g3529
sI163
g4887
ssI165
(dp5161
I108
g3534
sI107
g3471
sI164
g4900
ssI166
(dp5162
I1
g1052
sI99
g3262
sI165
g4923
ssI167
(dp5163
I1
g1047
sI99
g3252
sI95
g3130
ssI168
(dp5164
I0
g1014
sI166
g4936
sI167
g4949
ssg1330
(dp5165
I97
g3159
sI99
g3247
sI102
g3336
sI167
g4961
sI168
g4967
sI74
g2580
sI107
g3476
sI111
g3631
sI16
g1331
sI113
g3709
sI116
g3803
sI87
g2926
sI89
g2955
sI124
g3935
sI126
g3993
sssS'default_layout'
p5166
S'dot'
p5167
sS'node'
p5168
(dp5169
I0
g0
(g1015
g1016
(dp5170
tp5171
Rp5172
(dp5173
g1028
g1000
sbsI1
g0
(g1015
g1016
(dp5174
tp5175
Rp5176
(dp5177
g1028
g1000
sbsI2
g0
(g1015
g1016
(dp5178
tp5179
Rp5180
(dp5181
g1028
g1000
sbsI3
g0
(g1015
g1016
(dp5182
tp5183
Rp5184
(dp5185
g1028
g1000
sbsI4
g0
(g1015
g1016
(dp5186
tp5187
Rp5188
(dp5189
g1028
g1000
sbsI5
g0
(g1015
g1016
(dp5190
tp5191
Rp5192
(dp5193
g1028
g1000
sbsI6
g0
(g1015
g1016
(dp5194
tp5195
Rp5196
(dp5197
g1028
g1000
sbsI7
g0
(g1015
g1016
(dp5198
tp5199
Rp5200
(dp5201
g1028
g1000
sbsI8
g0
(g1015
g1016
(dp5202
tp5203
Rp5204
(dp5205
g1028
g1000
sbsI9
g0
(g1015
g1016
(dp5206
tp5207
Rp5208
(dp5209
g1028
g1000
sbsI10
g0
(g1015
g1016
(dp5210
tp5211
Rp5212
(dp5213
g1028
g1000
sbsI11
g0
(g1015
g1016
(dp5214
tp5215
Rp5216
(dp5217
g1028
g1000
sbsI12
g0
(g1015
g1016
(dp5218
tp5219
Rp5220
(dp5221
g1028
g1000
sbsI13
g0
(g1015
g1016
(dp5222
tp5223
Rp5224
(dp5225
g1028
g1000
sbsI14
g0
(g1015
g1016
(dp5226
tp5227
Rp5228
(dp5229
g1028
g1000
sbsI15
g0
(g1015
g1016
(dp5230
tp5231
Rp5232
(dp5233
g1028
g1000
sbsI16
g0
(g1015
g1016
(dp5234
tp5235
Rp5236
(dp5237
g1028
g1000
sbsI17
g0
(g1015
g1016
(dp5238
tp5239
Rp5240
(dp5241
g1028
g1000
sbsI18
g0
(g1015
g1016
(dp5242
tp5243
Rp5244
(dp5245
g1028
g1000
sbsI19
g0
(g1015
g1016
(dp5246
tp5247
Rp5248
(dp5249
g1028
g1000
sbsI20
g0
(g1015
g1016
(dp5250
tp5251
Rp5252
(dp5253
g1028
g1000
sbsI21
g0
(g1015
g1016
(dp5254
tp5255
Rp5256
(dp5257
g1028
g1000
sbsI22
g0
(g1015
g1016
(dp5258
tp5259
Rp5260
(dp5261
g1028
g1000
sbsI23
g0
(g1015
g1016
(dp5262
tp5263
Rp5264
(dp5265
g1028
g1000
sbsI24
g0
(g1015
g1016
(dp5266
tp5267
Rp5268
(dp5269
g1028
g1000
sbsI25
g0
(g1015
g1016
(dp5270
tp5271
Rp5272
(dp5273
g1028
g1000
sbsI26
g0
(g1015
g1016
(dp5274
tp5275
Rp5276
(dp5277
g1028
g1000
sbsI27
g0
(g1015
g1016
(dp5278
tp5279
Rp5280
(dp5281
g1028
g1000
sbsI28
g0
(g1015
g1016
(dp5282
tp5283
Rp5284
(dp5285
g1028
g1000
sbsI29
g0
(g1015
g1016
(dp5286
tp5287
Rp5288
(dp5289
g1028
g1000
sbsI30
g0
(g1015
g1016
(dp5290
tp5291
Rp5292
(dp5293
g1028
g1000
sbsI31
g0
(g1015
g1016
(dp5294
tp5295
Rp5296
(dp5297
g1028
g1000
sbsI32
g0
(g1015
g1016
(dp5298
tp5299
Rp5300
(dp5301
g1028
g1000
sbsI33
g0
(g1015
g1016
(dp5302
tp5303
Rp5304
(dp5305
g1028
g1000
sbsI34
g0
(g1015
g1016
(dp5306
tp5307
Rp5308
(dp5309
g1028
g1000
sbsI35
g0
(g1015
g1016
(dp5310
tp5311
Rp5312
(dp5313
g1028
g1000
sbsI36
g0
(g1015
g1016
(dp5314
tp5315
Rp5316
(dp5317
g1028
g1000
sbsI37
g0
(g1015
g1016
(dp5318
tp5319
Rp5320
(dp5321
g1028
g1000
sbsI38
g0
(g1015
g1016
(dp5322
tp5323
Rp5324
(dp5325
g1028
g1000
sbsI39
g0
(g1015
g1016
(dp5326
tp5327
Rp5328
(dp5329
g1028
g1000
sbsI40
g0
(g1015
g1016
(dp5330
tp5331
Rp5332
(dp5333
g1028
g1000
sbsI41
g0
(g1015
g1016
(dp5334
tp5335
Rp5336
(dp5337
g1028
g1000
sbsI42
g0
(g1015
g1016
(dp5338
tp5339
Rp5340
(dp5341
g1028
g1000
sbsI43
g0
(g1015
g1016
(dp5342
tp5343
Rp5344
(dp5345
g1028
g1000
sbsI44
g0
(g1015
g1016
(dp5346
tp5347
Rp5348
(dp5349
g1028
g1000
sbsI45
g0
(g1015
g1016
(dp5350
tp5351
Rp5352
(dp5353
g1028
g1000
sbsI46
g0
(g1015
g1016
(dp5354
tp5355
Rp5356
(dp5357
g1028
g1000
sbsI47
g0
(g1015
g1016
(dp5358
tp5359
Rp5360
(dp5361
g1028
g1000
sbsI48
g0
(g1015
g1016
(dp5362
tp5363
Rp5364
(dp5365
g1028
g1000
sbsI49
g0
(g1015
g1016
(dp5366
tp5367
Rp5368
(dp5369
g1028
g1000
sbsI50
g0
(g1015
g1016
(dp5370
tp5371
Rp5372
(dp5373
g1028
g1000
sbsI51
g0
(g1015
g1016
(dp5374
tp5375
Rp5376
(dp5377
g1028
g1000
sbsI52
g0
(g1015
g1016
(dp5378
tp5379
Rp5380
(dp5381
g1028
g1000
sbsI53
g0
(g1015
g1016
(dp5382
tp5383
Rp5384
(dp5385
g1028
g1000
sbsI54
g0
(g1015
g1016
(dp5386
tp5387
Rp5388
(dp5389
g1028
g1000
sbsI55
g0
(g1015
g1016
(dp5390
tp5391
Rp5392
(dp5393
g1028
g1000
sbsI56
g0
(g1015
g1016
(dp5394
tp5395
Rp5396
(dp5397
g1028
g1000
sbsI57
g0
(g1015
g1016
(dp5398
tp5399
Rp5400
(dp5401
g1028
g1000
sbsI58
g0
(g1015
g1016
(dp5402
tp5403
Rp5404
(dp5405
g1028
g1000
sbsI59
g0
(g1015
g1016
(dp5406
tp5407
Rp5408
(dp5409
g1028
g1000
sbsI60
g0
(g1015
g1016
(dp5410
tp5411
Rp5412
(dp5413
g1028
g1000
sbsI61
g0
(g1015
g1016
(dp5414
tp5415
Rp5416
(dp5417
g1028
g1000
sbsI62
g0
(g1015
g1016
(dp5418
tp5419
Rp5420
(dp5421
g1028
g1000
sbsI63
g0
(g1015
g1016
(dp5422
tp5423
Rp5424
(dp5425
g1028
g1000
sbsI64
g0
(g1015
g1016
(dp5426
tp5427
Rp5428
(dp5429
g1028
g1000
sbsI65
g0
(g1015
g1016
(dp5430
tp5431
Rp5432
(dp5433
g1028
g1000
sbsI66
g0
(g1015
g1016
(dp5434
tp5435
Rp5436
(dp5437
g1028
g1000
sbsI67
g0
(g1015
g1016
(dp5438
tp5439
Rp5440
(dp5441
g1028
g1000
sbsI68
g0
(g1015
g1016
(dp5442
tp5443
Rp5444
(dp5445
g1028
g1000
sbsI69
g0
(g1015
g1016
(dp5446
tp5447
Rp5448
(dp5449
g1028
g1000
sbsI70
g0
(g1015
g1016
(dp5450
tp5451
Rp5452
(dp5453
g1028
g1000
sbsI71
g0
(g1015
g1016
(dp5454
tp5455
Rp5456
(dp5457
g1028
g1000
sbsI72
g0
(g1015
g1016
(dp5458
tp5459
Rp5460
(dp5461
g1028
g1000
sbsI73
g0
(g1015
g1016
(dp5462
tp5463
Rp5464
(dp5465
g1028
g1000
sbsI74
g0
(g1015
g1016
(dp5466
tp5467
Rp5468
(dp5469
g1028
g1000
sbsI75
g0
(g1015
g1016
(dp5470
tp5471
Rp5472
(dp5473
g1028
g1000
sbsI76
g0
(g1015
g1016
(dp5474
tp5475
Rp5476
(dp5477
g1028
g1000
sbsI77
g0
(g1015
g1016
(dp5478
tp5479
Rp5480
(dp5481
g1028
g1000
sbsI78
g0
(g1015
g1016
(dp5482
tp5483
Rp5484
(dp5485
g1028
g1000
sbsI79
g0
(g1015
g1016
(dp5486
tp5487
Rp5488
(dp5489
g1028
g1000
sbsI80
g0
(g1015
g1016
(dp5490
tp5491
Rp5492
(dp5493
g1028
g1000
sbsI81
g0
(g1015
g1016
(dp5494
tp5495
Rp5496
(dp5497
g1028
g1000
sbsI82
g0
(g1015
g1016
(dp5498
tp5499
Rp5500
(dp5501
g1028
g1000
sbsI83
g0
(g1015
g1016
(dp5502
tp5503
Rp5504
(dp5505
g1028
g1000
sbsI84
g0
(g1015
g1016
(dp5506
tp5507
Rp5508
(dp5509
g1028
g1000
sbsI85
g0
(g1015
g1016
(dp5510
tp5511
Rp5512
(dp5513
g1028
g1000
sbsI86
g0
(g1015
g1016
(dp5514
tp5515
Rp5516
(dp5517
g1028
g1000
sbsI87
g0
(g1015
g1016
(dp5518
tp5519
Rp5520
(dp5521
g1028
g1000
sbsI88
g0
(g1015
g1016
(dp5522
tp5523
Rp5524
(dp5525
g1028
g1000
sbsI89
g0
(g1015
g1016
(dp5526
tp5527
Rp5528
(dp5529
g1028
g1000
sbsI90
g0
(g1015
g1016
(dp5530
tp5531
Rp5532
(dp5533
g1028
g1000
sbsI91
g0
(g1015
g1016
(dp5534
tp5535
Rp5536
(dp5537
g1028
g1000
sbsI92
g0
(g1015
g1016
(dp5538
tp5539
Rp5540
(dp5541
g1028
g1000
sbsI93
g0
(g1015
g1016
(dp5542
tp5543
Rp5544
(dp5545
g1028
g1000
sbsI94
g0
(g1015
g1016
(dp5546
tp5547
Rp5548
(dp5549
g1028
g1000
sbsI95
g0
(g1015
g1016
(dp5550
tp5551
Rp5552
(dp5553
g1028
g1000
sbsI96
g0
(g1015
g1016
(dp5554
tp5555
Rp5556
(dp5557
g1028
g1000
sbsI97
g0
(g1015
g1016
(dp5558
tp5559
Rp5560
(dp5561
g1028
g1000
sbsI98
g0
(g1015
g1016
(dp5562
tp5563
Rp5564
(dp5565
g1028
g1000
sbsI99
g0
(g1015
g1016
(dp5566
tp5567
Rp5568
(dp5569
g1028
g1000
sbsI100
g0
(g1015
g1016
(dp5570
tp5571
Rp5572
(dp5573
g1028
g1000
sbsI101
g0
(g1015
g1016
(dp5574
tp5575
Rp5576
(dp5577
g1028
g1000
sbsI102
g0
(g1015
g1016
(dp5578
tp5579
Rp5580
(dp5581
g1028
g1000
sbsI103
g0
(g1015
g1016
(dp5582
tp5583
Rp5584
(dp5585
g1028
g1000
sbsI104
g0
(g1015
g1016
(dp5586
tp5587
Rp5588
(dp5589
g1028
g1000
sbsI105
g0
(g1015
g1016
(dp5590
tp5591
Rp5592
(dp5593
g1028
g1000
sbsI106
g0
(g1015
g1016
(dp5594
tp5595
Rp5596
(dp5597
g1028
g1000
sbsI107
g0
(g1015
g1016
(dp5598
tp5599
Rp5600
(dp5601
g1028
g1000
sbsI108
g0
(g1015
g1016
(dp5602
tp5603
Rp5604
(dp5605
g1028
g1000
sbsI109
g0
(g1015
g1016
(dp5606
tp5607
Rp5608
(dp5609
g1028
g1000
sbsI110
g0
(g1015
g1016
(dp5610
tp5611
Rp5612
(dp5613
g1028
g1000
sbsI111
g0
(g1015
g1016
(dp5614
tp5615
Rp5616
(dp5617
g1028
g1000
sbsI112
g0
(g1015
g1016
(dp5618
tp5619
Rp5620
(dp5621
g1028
g1000
sbsI113
g0
(g1015
g1016
(dp5622
tp5623
Rp5624
(dp5625
g1028
g1000
sbsI114
g0
(g1015
g1016
(dp5626
tp5627
Rp5628
(dp5629
g1028
g1000
sbsI115
g0
(g1015
g1016
(dp5630
tp5631
Rp5632
(dp5633
g1028
g1000
sbsI116
g0
(g1015
g1016
(dp5634
tp5635
Rp5636
(dp5637
g1028
g1000
sbsI117
g0
(g1015
g1016
(dp5638
tp5639
Rp5640
(dp5641
g1028
g1000
sbsI118
g0
(g1015
g1016
(dp5642
tp5643
Rp5644
(dp5645
g1028
g1000
sbsI119
g0
(g1015
g1016
(dp5646
tp5647
Rp5648
(dp5649
g1028
g1000
sbsI120
g0
(g1015
g1016
(dp5650
tp5651
Rp5652
(dp5653
g1028
g1000
sbsI121
g0
(g1015
g1016
(dp5654
tp5655
Rp5656
(dp5657
g1028
g1000
sbsI122
g0
(g1015
g1016
(dp5658
tp5659
Rp5660
(dp5661
g1028
g1000
sbsI123
g0
(g1015
g1016
(dp5662
tp5663
Rp5664
(dp5665
g1028
g1000
sbsI124
g0
(g1015
g1016
(dp5666
tp5667
Rp5668
(dp5669
g1028
g1000
sbsI125
g0
(g1015
g1016
(dp5670
tp5671
Rp5672
(dp5673
g1028
g1000
sbsI126
g0
(g1015
g1016
(dp5674
tp5675
Rp5676
(dp5677
g1028
g1000
sbsI127
g0
(g1015
g1016
(dp5678
tp5679
Rp5680
(dp5681
g1028
g1000
sbsI128
g0
(g1015
g1016
(dp5682
tp5683
Rp5684
(dp5685
g1028
g1000
sbsI129
g0
(g1015
g1016
(dp5686
tp5687
Rp5688
(dp5689
g1028
g1000
sbsI130
g0
(g1015
g1016
(dp5690
tp5691
Rp5692
(dp5693
g1028
g1000
sbsI131
g0
(g1015
g1016
(dp5694
tp5695
Rp5696
(dp5697
g1028
g1000
sbsI132
g0
(g1015
g1016
(dp5698
tp5699
Rp5700
(dp5701
g1028
g1000
sbsI133
g0
(g1015
g1016
(dp5702
tp5703
Rp5704
(dp5705
g1028
g1000
sbsI134
g0
(g1015
g1016
(dp5706
tp5707
Rp5708
(dp5709
g1028
g1000
sbsI135
g0
(g1015
g1016
(dp5710
tp5711
Rp5712
(dp5713
g1028
g1000
sbsI136
g0
(g1015
g1016
(dp5714
tp5715
Rp5716
(dp5717
g1028
g1000
sbsI137
g0
(g1015
g1016
(dp5718
tp5719
Rp5720
(dp5721
g1028
g1000
sbsI138
g0
(g1015
g1016
(dp5722
tp5723
Rp5724
(dp5725
g1028
g1000
sbsI139
g0
(g1015
g1016
(dp5726
tp5727
Rp5728
(dp5729
g1028
g1000
sbsI140
g0
(g1015
g1016
(dp5730
tp5731
Rp5732
(dp5733
g1028
g1000
sbsI141
g0
(g1015
g1016
(dp5734
tp5735
Rp5736
(dp5737
g1028
g1000
sbsI142
g0
(g1015
g1016
(dp5738
tp5739
Rp5740
(dp5741
g1028
g1000
sbsI143
g0
(g1015
g1016
(dp5742
tp5743
Rp5744
(dp5745
g1028
g1000
sbsI144
g0
(g1015
g1016
(dp5746
tp5747
Rp5748
(dp5749
g1028
g1000
sbsI145
g0
(g1015
g1016
(dp5750
tp5751
Rp5752
(dp5753
g1028
g1000
sbsI146
g0
(g1015
g1016
(dp5754
tp5755
Rp5756
(dp5757
g1028
g1000
sbsI147
g0
(g1015
g1016
(dp5758
tp5759
Rp5760
(dp5761
g1028
g1000
sbsI148
g0
(g1015
g1016
(dp5762
tp5763
Rp5764
(dp5765
g1028
g1000
sbsI149
g0
(g1015
g1016
(dp5766
tp5767
Rp5768
(dp5769
g1028
g1000
sbsI150
g0
(g1015
g1016
(dp5770
tp5771
Rp5772
(dp5773
g1028
g1000
sbsI151
g0
(g1015
g1016
(dp5774
tp5775
Rp5776
(dp5777
g1028
g1000
sbsI152
g0
(g1015
g1016
(dp5778
tp5779
Rp5780
(dp5781
g1028
g1000
sbsI153
g0
(g1015
g1016
(dp5782
tp5783
Rp5784
(dp5785
g1028
g1000
sbsI154
g0
(g1015
g1016
(dp5786
tp5787
Rp5788
(dp5789
g1028
g1000
sbsI155
g0
(g1015
g1016
(dp5790
tp5791
Rp5792
(dp5793
g1028
g1000
sbsI156
g0
(g1015
g1016
(dp5794
tp5795
Rp5796
(dp5797
g1028
g1000
sbsI157
g0
(g1015
g1016
(dp5798
tp5799
Rp5800
(dp5801
g1028
g1000
sbsI158
g0
(g1015
g1016
(dp5802
tp5803
Rp5804
(dp5805
g1028
g1000
sbsI159
g0
(g1015
g1016
(dp5806
tp5807
Rp5808
(dp5809
g1028
g1000
sbsI160
g0
(g1015
g1016
(dp5810
tp5811
Rp5812
(dp5813
g1028
g1000
sbsI161
g0
(g1015
g1016
(dp5814
tp5815
Rp5816
(dp5817
g1028
g1000
sbsI162
g0
(g1015
g1016
(dp5818
tp5819
Rp5820
(dp5821
g1028
g1000
sbsI163
g0
(g1015
g1016
(dp5822
tp5823
Rp5824
(dp5825
g1028
g1000
sbsI164
g0
(g1015
g1016
(dp5826
tp5827
Rp5828
(dp5829
g1028
g1000
sbsI165
g0
(g1015
g1016
(dp5830
tp5831
Rp5832
(dp5833
g1028
g1000
sbsI166
g0
(g1015
g1016
(dp5834
tp5835
Rp5836
(dp5837
g1028
g1000
sbsI167
g0
(g1015
g1016
(dp5838
tp5839
Rp5840
(dp5841
g1028
g1000
sbsI168
g0
(g1015
g1016
(dp5842
tp5843
Rp5844
(dp5845
g1028
g1000
sbsg1330
g0
(g1015
g1016
(dp5846
tp5847
Rp5848
(dp5849
g1028
g1000
sbssS'inputs'
p5850
(dp5851
g977
g980
ssS'_state_dot_mask'
p5852
(dp5853
sS'outputs'
p5854
(dp5855
g8
g972
sg973
g976
sg981
g984
sg985
g988
sg989
g992
sg993
g996
ssS'succ'
p5856
g4995
sS'_edge_label_defaults'
p5857
(dp5858
sS'_node_label_types'
p5859
g1000
sS'_transition_dot_mask'
p5860
(dp5861
sS'states'
p5862
g0
(ctulip.transys.labeled_graphs
States
p5863
g2
Ntp5864
Rp5865
(dp5866
g1007
g4
sS'_initial'
p5867
g0
(ctulip.transys.mathset
SubSet
p5868
g2
Ntp5869
Rp5870
(dp5871
S'_superset'
p5872
g5865
sS'_list'
p5873
(lp5874
sS'_set'
p5875
g9
((lp5876
g1330
atp5877
Rp5878
sbsbsS'edge'
p5879
g4995
sg1007
(dp5880
sS'dot_node_shape'
p5881
(dp5882
S'normal'
p5883
S'ellipse'
p5884
ssS'default_export_fname'
p5885
S'mealy'
p5886
sb.