ccopy_reg
_reconstructor
p0
(ctulip.transys.machines
MealyMachine
p1
c__builtin__
object
p2
Ntp3
Rp4
(dp5
S'_transition_label_def'
p6
(dp7
S'loc'
p8
c__builtin__
set
p9
((lp10
I0
aI1
aI2
aI3
aI4
aI5
aI6
aI7
aI8
aI9
aI10
aI11
aI12
aI13
aI14
aI15
aI16
aI17
aI18
aI19
aI20
aI21
aI22
aI23
aI24
aI25
aI26
aI27
aI28
aI29
aI30
aI31
aI32
aI33
aI34
aI35
aI36
aI37
aI38
aI39
aI40
aI41
aI42
aI43
aI44
aI45
aI46
aI47
aI48
aI49
aI50
aI51
aI52
aI53
aI54
aI55
aI56
aI57
aI58
aI59
aI60
aI61
aI62
aI63
aI64
aI65
aI66
aI67
aI68
aI69
aI70
atp11
Rp12
sS'noHXfreeze'
p13
g9
((lp14
I0
aI1
atp15
Rp16
sS'level'
p17
g9
((lp18
I0
aI1
aI2
atp19
Rp20
sS'tempCold'
p21
g9
((lp22
I0
aI1
atp23
Rp24
sS'tempGood'
p25
g9
((lp26
I0
aI1
atp27
Rp28
sS'trackfl'
p29
g9
((lp30
I0
aI1
aI2
aI3
atp31
Rp32
sS'tempHot'
p33
g9
((lp34
I0
aI1
atp35
Rp36
ssS'inputs'
p37
ccollections
OrderedDict
p38
((lp39
(lp40
g17
ag20
aatp41
Rp42
sS'state_vars'
p43
g38
((lp44
(lp45
g8
ag12
aatp46
Rp47
sS'transitions'
p48
g0
(ctulip.transys.labeled_graphs
Transitions
p49
g2
Ntp50
Rp51
(dp52
S'graph'
p53
g4
sS'_deterministic'
p54
I00
sbsS'node'
p55
(dp56
I0
g0
(ctulip.transys.mathset
TypedDict
p57
c__builtin__
dict
p58
(dp59
S'loc'
p60
I16
stp61
Rp62
(dp63
S'allowed_values'
p64
(dp65
g8
g12
ssbsI1
g0
(g57
g58
(dp66
S'loc'
p67
I32
stp68
Rp69
(dp70
g64
g65
sbsI2
g0
(g57
g58
(dp71
S'loc'
p72
I0
stp73
Rp74
(dp75
g64
g65
sbsI3
g0
(g57
g58
(dp76
S'loc'
p77
I8
stp78
Rp79
(dp80
g64
g65
sbsI4
g0
(g57
g58
(dp81
S'loc'
p82
I2
stp83
Rp84
(dp85
g64
g65
sbsI5
g0
(g57
g58
(dp86
S'loc'
p87
I32
stp88
Rp89
(dp90
g64
g65
sbsI6
g0
(g57
g58
(dp91
S'loc'
p92
I8
stp93
Rp94
(dp95
g64
g65
sbsI7
g0
(g57
g58
(dp96
S'loc'
p97
I2
stp98
Rp99
(dp100
g64
g65
sbsI8
g0
(g57
g58
(dp101
S'loc'
p102
I32
stp103
Rp104
(dp105
g64
g65
sbsI9
g0
(g57
g58
(dp106
S'loc'
p107
I32
stp108
Rp109
(dp110
g64
g65
sbsI10
g0
(g57
g58
(dp111
S'loc'
p112
I32
stp113
Rp114
(dp115
g64
g65
sbsI11
g0
(g57
g58
(dp116
S'loc'
p117
I32
stp118
Rp119
(dp120
g64
g65
sbsI12
g0
(g57
g58
(dp121
S'loc'
p122
I3
stp123
Rp124
(dp125
g64
g65
sbsI13
g0
(g57
g58
(dp126
S'loc'
p127
I8
stp128
Rp129
(dp130
g64
g65
sbsI14
g0
(g57
g58
(dp131
S'loc'
p132
I0
stp133
Rp134
(dp135
g64
g65
sbsI15
g0
(g57
g58
(dp136
S'loc'
p137
I0
stp138
Rp139
(dp140
g64
g65
sbsI16
g0
(g57
g58
(dp141
S'loc'
p142
I16
stp143
Rp144
(dp145
g64
g65
sbsI17
g0
(g57
g58
(dp146
S'loc'
p147
I64
stp148
Rp149
(dp150
g64
g65
sbsI18
g0
(g57
g58
(dp151
S'loc'
p152
I64
stp153
Rp154
(dp155
g64
g65
sbsI19
g0
(g57
g58
(dp156
S'loc'
p157
I64
stp158
Rp159
(dp160
g64
g65
sbsI20
g0
(g57
g58
(dp161
S'loc'
p162
I64
stp163
Rp164
(dp165
g64
g65
sbsI21
g0
(g57
g58
(dp166
S'loc'
p167
I64
stp168
Rp169
(dp170
g64
g65
sbsI22
g0
(g57
g58
(dp171
S'loc'
p172
I64
stp173
Rp174
(dp175
g64
g65
sbsI23
g0
(g57
g58
(dp176
S'loc'
p177
I59
stp178
Rp179
(dp180
g64
g65
sbsI24
g0
(g57
g58
(dp181
S'loc'
p182
I9
stp183
Rp184
(dp185
g64
g65
sbsI25
g0
(g57
g58
(dp186
S'loc'
p187
I0
stp188
Rp189
(dp190
g64
g65
sbsI26
g0
(g57
g58
(dp191
S'loc'
p192
I0
stp193
Rp194
(dp195
g64
g65
sbsI27
g0
(g57
g58
(dp196
S'loc'
p197
I0
stp198
Rp199
(dp200
g64
g65
sbsI28
g0
(g57
g58
(dp201
S'loc'
p202
I1
stp203
Rp204
(dp205
g64
g65
sbsS'Sinit'
p206
g0
(g57
g58
(dp207
tp208
Rp209
(dp210
g64
g65
sbssS'_state_label_def'
p211
g65
sS'outputs'
p212
g38
((lp213
(lp214
g21
ag24
aa(lp215
g13
ag16
aa(lp216
g8
ag12
aa(lp217
g29
ag32
aa(lp218
g33
ag36
aa(lp219
g25
ag28
aatp220
Rp221
sS'pred'
p222
(dp223
I0
(dp224
I21
(dp225
I0
g0
(g57
g58
(dp226
g60
I16
sS'noHXfreeze'
p227
I1
sS'tempCold'
p228
I0
sS'level'
p229
I1
sS'trackfl'
p230
I3
sS'tempHot'
p231
I0
sS'tempGood'
p232
I0
stp233
Rp234
(dp235
g64
g7
sbsssI1
(dp236
I5
(dp237
I0
g0
(g57
g58
(dp238
g67
I32
sS'noHXfreeze'
p239
I1
sS'tempCold'
p240
I0
sS'level'
p241
I0
sS'trackfl'
p242
I0
sS'tempHot'
p243
I1
sS'tempGood'
p244
I0
stp245
Rp246
(dp247
g64
g7
sbsssI2
(dp248
I0
(dp249
I0
g0
(g57
g58
(dp250
g72
I0
sS'noHXfreeze'
p251
I1
sS'tempCold'
p252
I0
sS'level'
p253
I1
sS'trackfl'
p254
I1
sS'tempHot'
p255
I0
sS'tempGood'
p256
I1
stp257
Rp258
(dp259
g64
g7
sbssI25
(dp260
I0
g0
(g57
g58
(dp261
g72
I0
sg251
I1
sg252
I0
sg253
I1
sg254
I1
sg255
I0
sg256
I1
stp262
Rp263
(dp264
g64
g7
sbssI3
(dp265
I0
g0
(g57
g58
(dp266
g72
I0
sg251
I1
sg252
I0
sg253
I1
sg254
I1
sg255
I0
sg256
I1
stp267
Rp268
(dp269
g64
g7
sbssg206
(dp270
I0
g0
(g57
g58
(dp271
g72
I0
sg251
I1
sg252
I0
sg253
I1
sg254
I1
sg255
I0
sg256
I1
stp272
Rp273
(dp274
g64
g7
sbsssI3
(dp275
I4
(dp276
I0
g0
(g57
g58
(dp277
g77
I8
sS'noHXfreeze'
p278
I0
sS'tempCold'
p279
I0
sS'level'
p280
I1
sS'trackfl'
p281
I3
sS'tempHot'
p282
I0
sS'tempGood'
p283
I0
stp284
Rp285
(dp286
g64
g7
sbsssI4
(dp287
I8
(dp288
I0
g0
(g57
g58
(dp289
g82
I2
sS'noHXfreeze'
p290
I1
sS'tempCold'
p291
I0
sS'level'
p292
I1
sS'trackfl'
p293
I0
sS'tempHot'
p294
I1
sS'tempGood'
p295
I0
stp296
Rp297
(dp298
g64
g7
sbsssI5
(dp299
I8
(dp300
I0
g0
(g57
g58
(dp301
g87
I32
sS'noHXfreeze'
p302
I1
sS'tempCold'
p303
I0
sS'level'
p304
I0
sS'trackfl'
p305
I0
sS'tempHot'
p306
I1
sS'tempGood'
p307
I0
stp308
Rp309
(dp310
g64
g7
sbssI9
(dp311
I0
g0
(g57
g58
(dp312
g87
I32
sg302
I1
sg303
I0
sg304
I0
sg305
I0
sg306
I1
sg307
I0
stp313
Rp314
(dp315
g64
g7
sbssI4
(dp316
I0
g0
(g57
g58
(dp317
g87
I32
sg302
I1
sg303
I0
sg304
I0
sg305
I0
sg306
I1
sg307
I0
stp318
Rp319
(dp320
g64
g7
sbsssI6
(dp321
I7
(dp322
I0
g0
(g57
g58
(dp323
g92
I8
sS'noHXfreeze'
p324
I0
sS'tempCold'
p325
I0
sS'level'
p326
I2
sS'trackfl'
p327
I3
sS'tempHot'
p328
I0
sS'tempGood'
p329
I0
stp330
Rp331
(dp332
g64
g7
sbsssI7
(dp333
I10
(dp334
I0
g0
(g57
g58
(dp335
g97
I2
sS'noHXfreeze'
p336
I1
sS'tempCold'
p337
I0
sS'level'
p338
I2
sS'trackfl'
p339
I0
sS'tempHot'
p340
I1
sS'tempGood'
p341
I0
stp342
Rp343
(dp344
g64
g7
sbsssI8
(dp345
I1
(dp346
I0
g0
(g57
g58
(dp347
g102
I32
sS'noHXfreeze'
p348
I1
sS'tempCold'
p349
I0
sS'level'
p350
I1
sS'trackfl'
p351
I0
sS'tempHot'
p352
I1
sS'tempGood'
p353
I0
stp354
Rp355
(dp356
g64
g7
sbssI5
(dp357
I0
g0
(g57
g58
(dp358
g102
I32
sg348
I1
sg349
I0
sg350
I1
sg351
I0
sg352
I1
sg353
I0
stp359
Rp360
(dp361
g64
g7
sbssI7
(dp362
I0
g0
(g57
g58
(dp363
g102
I32
sg348
I1
sg349
I0
sg350
I1
sg351
I0
sg352
I1
sg353
I0
stp364
Rp365
(dp366
g64
g7
sbssI9
(dp367
I0
g0
(g57
g58
(dp368
g102
I32
sg348
I1
sg349
I0
sg350
I1
sg351
I0
sg352
I1
sg353
I0
stp369
Rp370
(dp371
g64
g7
sbssI10
(dp372
I0
g0
(g57
g58
(dp373
g102
I32
sg348
I1
sg349
I0
sg350
I1
sg351
I0
sg352
I1
sg353
I0
stp374
Rp375
(dp376
g64
g7
sbssI11
(dp377
I0
g0
(g57
g58
(dp378
g102
I32
sg348
I1
sg349
I0
sg350
I1
sg351
I0
sg352
I1
sg353
I0
stp379
Rp380
(dp381
g64
g7
sbssI12
(dp382
I0
g0
(g57
g58
(dp383
g102
I32
sg348
I1
sg349
I0
sg350
I1
sg351
I0
sg352
I1
sg353
I0
stp384
Rp385
(dp386
g64
g7
sbsssI9
(dp387
I10
(dp388
I0
g0
(g57
g58
(dp389
g107
I32
sS'noHXfreeze'
p390
I1
sS'tempCold'
p391
I0
sS'level'
p392
I0
sS'trackfl'
p393
I0
sS'tempHot'
p394
I1
sS'tempGood'
p395
I0
stp396
Rp397
(dp398
g64
g7
sbssI11
(dp399
I0
g0
(g57
g58
(dp400
g107
I32
sg390
I1
sg391
I0
sg392
I0
sg393
I0
sg394
I1
sg395
I0
stp401
Rp402
(dp403
g64
g7
sbssI7
(dp404
I0
g0
(g57
g58
(dp405
g107
I32
sg390
I1
sg391
I0
sg392
I0
sg393
I0
sg394
I1
sg395
I0
stp406
Rp407
(dp408
g64
g7
sbsssI10
(dp409
I1
(dp410
I0
g0
(g57
g58
(dp411
g112
I32
sS'noHXfreeze'
p412
I1
sS'tempCold'
p413
I0
sS'level'
p414
I2
sS'trackfl'
p415
I0
sS'tempHot'
p416
I1
sS'tempGood'
p417
I0
stp418
Rp419
(dp420
g64
g7
sbssI4
(dp421
I0
g0
(g57
g58
(dp422
g112
I32
sg412
I1
sg413
I0
sg414
I2
sg415
I0
sg416
I1
sg417
I0
stp423
Rp424
(dp425
g64
g7
sbssI5
(dp426
I0
g0
(g57
g58
(dp427
g112
I32
sg412
I1
sg413
I0
sg414
I2
sg415
I0
sg416
I1
sg417
I0
stp428
Rp429
(dp430
g64
g7
sbssI8
(dp431
I0
g0
(g57
g58
(dp432
g112
I32
sg412
I1
sg413
I0
sg414
I2
sg415
I0
sg416
I1
sg417
I0
stp433
Rp434
(dp435
g64
g7
sbssI9
(dp436
I0
g0
(g57
g58
(dp437
g112
I32
sg412
I1
sg413
I0
sg414
I2
sg415
I0
sg416
I1
sg417
I0
stp438
Rp439
(dp440
g64
g7
sbssI11
(dp441
I0
g0
(g57
g58
(dp442
g112
I32
sg412
I1
sg413
I0
sg414
I2
sg415
I0
sg416
I1
sg417
I0
stp443
Rp444
(dp445
g64
g7
sbssI12
(dp446
I0
g0
(g57
g58
(dp447
g112
I32
sg412
I1
sg413
I0
sg414
I2
sg415
I0
sg416
I1
sg417
I0
stp448
Rp449
(dp450
g64
g7
sbsssI11
(dp451
I1
(dp452
I0
g0
(g57
g58
(dp453
g117
I32
sS'noHXfreeze'
p454
I1
sS'tempCold'
p455
I0
sS'level'
p456
I0
sS'trackfl'
p457
I0
sS'tempHot'
p458
I1
sS'tempGood'
p459
I0
stp460
Rp461
(dp462
g64
g7
sbssI12
(dp463
I0
g0
(g57
g58
(dp464
g117
I32
sg454
I1
sg455
I0
sg456
I0
sg457
I0
sg458
I1
sg459
I0
stp465
Rp466
(dp467
g64
g7
sbsssI12
(dp468
I13
(dp469
I0
g0
(g57
g58
(dp470
g122
I3
sS'noHXfreeze'
p471
I0
sS'tempCold'
p472
I0
sS'level'
p473
I0
sS'trackfl'
p474
I0
sS'tempHot'
p475
I1
sS'tempGood'
p476
I0
stp477
Rp478
(dp479
g64
g7
sbsssI13
(dp480
I15
(dp481
I0
g0
(g57
g58
(dp482
g127
I8
sS'noHXfreeze'
p483
I0
sS'tempCold'
p484
I0
sS'level'
p485
I0
sS'trackfl'
p486
I3
sS'tempHot'
p487
I0
sS'tempGood'
p488
I0
stp489
Rp490
(dp491
g64
g7
sbsssI14
(dp492
I16
(dp493
I0
g0
(g57
g58
(dp494
g132
I0
sS'noHXfreeze'
p495
I1
sS'tempCold'
p496
I0
sS'level'
p497
I1
sS'trackfl'
p498
I1
sS'tempHot'
p499
I0
sS'tempGood'
p500
I1
stp501
Rp502
(dp503
g64
g7
sbssg206
(dp504
I0
g0
(g57
g58
(dp505
g132
I0
sg495
I1
sg496
I0
sg497
I1
sg498
I1
sg499
I0
sg500
I1
stp506
Rp507
(dp508
g64
g7
sbssI2
(dp509
I0
g0
(g57
g58
(dp510
g132
I0
sg495
I1
sg496
I0
sg497
I1
sg498
I1
sg499
I0
sg500
I1
stp511
Rp512
(dp513
g64
g7
sbssI13
(dp514
I0
g0
(g57
g58
(dp515
g132
I0
sg495
I1
sg496
I0
sg497
I1
sg498
I1
sg499
I0
sg500
I1
stp516
Rp517
(dp518
g64
g7
sbssI15
(dp519
I0
g0
(g57
g58
(dp520
g132
I0
sg495
I1
sg496
I0
sg497
I1
sg498
I1
sg499
I0
sg500
I1
stp521
Rp522
(dp523
g64
g7
sbsssI15
(dp524
I0
(dp525
I0
g0
(g57
g58
(dp526
g137
I0
sS'noHXfreeze'
p527
I1
sS'tempCold'
p528
I0
sS'level'
p529
I0
sS'trackfl'
p530
I1
sS'tempHot'
p531
I0
sS'tempGood'
p532
I1
stp533
Rp534
(dp535
g64
g7
sbssI2
(dp536
I0
g0
(g57
g58
(dp537
g137
I0
sg527
I1
sg528
I0
sg529
I0
sg530
I1
sg531
I0
sg532
I1
stp538
Rp539
(dp540
g64
g7
sbssI3
(dp541
I0
g0
(g57
g58
(dp542
g137
I0
sg527
I1
sg528
I0
sg529
I0
sg530
I1
sg531
I0
sg532
I1
stp543
Rp544
(dp545
g64
g7
sbssI6
(dp546
I0
g0
(g57
g58
(dp547
g137
I0
sg527
I1
sg528
I0
sg529
I0
sg530
I1
sg531
I0
sg532
I1
stp548
Rp549
(dp550
g64
g7
sbssI14
(dp551
I0
g0
(g57
g58
(dp552
g137
I0
sg527
I1
sg528
I0
sg529
I0
sg530
I1
sg531
I0
sg532
I1
stp553
Rp554
(dp555
g64
g7
sbssI16
(dp556
I0
g0
(g57
g58
(dp557
g137
I0
sg527
I1
sg528
I0
sg529
I0
sg530
I1
sg531
I0
sg532
I1
stp558
Rp559
(dp560
g64
g7
sbssI24
(dp561
I0
g0
(g57
g58
(dp562
g137
I0
sg527
I1
sg528
I0
sg529
I0
sg530
I1
sg531
I0
sg532
I1
stp563
Rp564
(dp565
g64
g7
sbssI25
(dp566
I0
g0
(g57
g58
(dp567
g137
I0
sg527
I1
sg528
I0
sg529
I0
sg530
I1
sg531
I0
sg532
I1
stp568
Rp569
(dp570
g64
g7
sbssI26
(dp571
I0
g0
(g57
g58
(dp572
g137
I0
sg527
I1
sg528
I0
sg529
I0
sg530
I1
sg531
I0
sg532
I1
stp573
Rp574
(dp575
g64
g7
sbssI27
(dp576
I0
g0
(g57
g58
(dp577
g137
I0
sg527
I1
sg528
I0
sg529
I0
sg530
I1
sg531
I0
sg532
I1
stp578
Rp579
(dp580
g64
g7
sbssI28
(dp581
I0
g0
(g57
g58
(dp582
g137
I0
sg527
I1
sg528
I0
sg529
I0
sg530
I1
sg531
I0
sg532
I1
stp583
Rp584
(dp585
g64
g7
sbsssI16
(dp586
I22
(dp587
I0
g0
(g57
g58
(dp588
g142
I16
sS'noHXfreeze'
p589
I1
sS'tempCold'
p590
I0
sS'level'
p591
I0
sS'trackfl'
p592
I3
sS'tempHot'
p593
I0
sS'tempGood'
p594
I0
stp595
Rp596
(dp597
g64
g7
sbsssI17
(dp598
I18
(dp599
I0
g0
(g57
g58
(dp600
g147
I64
sS'noHXfreeze'
p601
I1
sS'tempCold'
p602
I1
sS'level'
p603
I2
sS'trackfl'
p604
I2
sS'tempHot'
p605
I0
sS'tempGood'
p606
I0
stp607
Rp608
(dp609
g64
g7
sbsssI18
(dp610
I19
(dp611
I0
g0
(g57
g58
(dp612
g152
I64
sS'noHXfreeze'
p613
I1
sS'tempCold'
p614
I1
sS'level'
p615
I2
sS'trackfl'
p616
I2
sS'tempHot'
p617
I0
sS'tempGood'
p618
I0
stp619
Rp620
(dp621
g64
g7
sbsssI19
(dp622
I20
(dp623
I0
g0
(g57
g58
(dp624
g157
I64
sS'noHXfreeze'
p625
I1
sS'tempCold'
p626
I1
sS'level'
p627
I2
sS'trackfl'
p628
I2
sS'tempHot'
p629
I0
sS'tempGood'
p630
I0
stp631
Rp632
(dp633
g64
g7
sbssI22
(dp634
I0
g0
(g57
g58
(dp635
g157
I64
sg625
I1
sg626
I1
sg627
I2
sg628
I2
sg629
I0
sg630
I0
stp636
Rp637
(dp638
g64
g7
sbsssI20
(dp639
I17
(dp640
I0
g0
(g57
g58
(dp641
g162
I64
sS'noHXfreeze'
p642
I1
sS'tempCold'
p643
I1
sS'level'
p644
I2
sS'trackfl'
p645
I2
sS'tempHot'
p646
I0
sS'tempGood'
p647
I0
stp648
Rp649
(dp650
g64
g7
sbssI21
(dp651
I0
g0
(g57
g58
(dp652
g162
I64
sg642
I1
sg643
I1
sg644
I2
sg645
I2
sg646
I0
sg647
I0
stp653
Rp654
(dp655
g64
g7
sbssI23
(dp656
I0
g0
(g57
g58
(dp657
g162
I64
sg642
I1
sg643
I1
sg644
I2
sg645
I2
sg646
I0
sg647
I0
stp658
Rp659
(dp660
g64
g7
sbsssI21
(dp661
I17
(dp662
I0
g0
(g57
g58
(dp663
g167
I64
sS'noHXfreeze'
p664
I1
sS'tempCold'
p665
I1
sS'level'
p666
I1
sS'trackfl'
p667
I2
sS'tempHot'
p668
I0
sS'tempGood'
p669
I0
stp670
Rp671
(dp672
g64
g7
sbssI18
(dp673
I0
g0
(g57
g58
(dp674
g167
I64
sg664
I1
sg665
I1
sg666
I1
sg667
I2
sg668
I0
sg669
I0
stp675
Rp676
(dp677
g64
g7
sbssI19
(dp678
I0
g0
(g57
g58
(dp679
g167
I64
sg664
I1
sg665
I1
sg666
I1
sg667
I2
sg668
I0
sg669
I0
stp680
Rp681
(dp682
g64
g7
sbssI20
(dp683
I0
g0
(g57
g58
(dp684
g167
I64
sg664
I1
sg665
I1
sg666
I1
sg667
I2
sg668
I0
sg669
I0
stp685
Rp686
(dp687
g64
g7
sbssI22
(dp688
I0
g0
(g57
g58
(dp689
g167
I64
sg664
I1
sg665
I1
sg666
I1
sg667
I2
sg668
I0
sg669
I0
stp690
Rp691
(dp692
g64
g7
sbssI23
(dp693
I0
g0
(g57
g58
(dp694
g167
I64
sg664
I1
sg665
I1
sg666
I1
sg667
I2
sg668
I0
sg669
I0
stp695
Rp696
(dp697
g64
g7
sbsssI22
(dp698
I17
(dp699
I0
g0
(g57
g58
(dp700
g172
I64
sS'noHXfreeze'
p701
I1
sS'tempCold'
p702
I1
sS'level'
p703
I0
sS'trackfl'
p704
I2
sS'tempHot'
p705
I0
sS'tempGood'
p706
I0
stp707
Rp708
(dp709
g64
g7
sbssI18
(dp710
I0
g0
(g57
g58
(dp711
g172
I64
sg701
I1
sg702
I1
sg703
I0
sg704
I2
sg705
I0
sg706
I0
stp712
Rp713
(dp714
g64
g7
sbssI19
(dp715
I0
g0
(g57
g58
(dp716
g172
I64
sg701
I1
sg702
I1
sg703
I0
sg704
I2
sg705
I0
sg706
I0
stp717
Rp718
(dp719
g64
g7
sbssI20
(dp720
I0
g0
(g57
g58
(dp721
g172
I64
sg701
I1
sg702
I1
sg703
I0
sg704
I2
sg705
I0
sg706
I0
stp722
Rp723
(dp724
g64
g7
sbssI21
(dp725
I0
g0
(g57
g58
(dp726
g172
I64
sg701
I1
sg702
I1
sg703
I0
sg704
I2
sg705
I0
sg706
I0
stp727
Rp728
(dp729
g64
g7
sbssI23
(dp730
I0
g0
(g57
g58
(dp731
g172
I64
sg701
I1
sg702
I1
sg703
I0
sg704
I2
sg705
I0
sg706
I0
stp732
Rp733
(dp734
g64
g7
sbsssI23
(dp735
I24
(dp736
I0
g0
(g57
g58
(dp737
g177
I59
sS'noHXfreeze'
p738
I1
sS'tempCold'
p739
I1
sS'level'
p740
I2
sS'trackfl'
p741
I2
sS'tempHot'
p742
I0
sS'tempGood'
p743
I0
stp744
Rp745
(dp746
g64
g7
sbsssI24
(dp747
I26
(dp748
I0
g0
(g57
g58
(dp749
g182
I9
sS'noHXfreeze'
p750
I0
sS'tempCold'
p751
I0
sS'level'
p752
I2
sS'trackfl'
p753
I3
sS'tempHot'
p754
I0
sS'tempGood'
p755
I0
stp756
Rp757
(dp758
g64
g7
sbsssI25
(dp759
I24
(dp760
I0
g0
(g57
g58
(dp761
g187
I0
sS'noHXfreeze'
p762
I1
sS'tempCold'
p763
I0
sS'level'
p764
I1
sS'trackfl'
p765
I1
sS'tempHot'
p766
I0
sS'tempGood'
p767
I1
stp768
Rp769
(dp770
g64
g7
sbssg206
(dp771
I0
g0
(g57
g58
(dp772
g187
I0
sg762
I1
sg763
I0
sg764
I1
sg765
I1
sg766
I0
sg767
I1
stp773
Rp774
(dp775
g64
g7
sbssI26
(dp776
I0
g0
(g57
g58
(dp777
g187
I0
sg762
I1
sg763
I0
sg764
I1
sg765
I1
sg766
I0
sg767
I1
stp778
Rp779
(dp780
g64
g7
sbssI27
(dp781
I0
g0
(g57
g58
(dp782
g187
I0
sg762
I1
sg763
I0
sg764
I1
sg765
I1
sg766
I0
sg767
I1
stp783
Rp784
(dp785
g64
g7
sbssI6
(dp786
I0
g0
(g57
g58
(dp787
g187
I0
sg762
I1
sg763
I0
sg764
I1
sg765
I1
sg766
I0
sg767
I1
stp788
Rp789
(dp790
g64
g7
sbsssI26
(dp791
I0
(dp792
I0
g0
(g57
g58
(dp793
g192
I0
sS'noHXfreeze'
p794
I1
sS'tempCold'
p795
I0
sS'level'
p796
I2
sS'trackfl'
p797
I1
sS'tempHot'
p798
I0
sS'tempGood'
p799
I1
stp800
Rp801
(dp802
g64
g7
sbssI2
(dp803
I0
g0
(g57
g58
(dp804
g192
I0
sg794
I1
sg795
I0
sg796
I2
sg797
I1
sg798
I0
sg799
I1
stp805
Rp806
(dp807
g64
g7
sbssI3
(dp808
I0
g0
(g57
g58
(dp809
g192
I0
sg794
I1
sg795
I0
sg796
I2
sg797
I1
sg798
I0
sg799
I1
stp810
Rp811
(dp812
g64
g7
sbssI6
(dp813
I0
g0
(g57
g58
(dp814
g192
I0
sg794
I1
sg795
I0
sg796
I2
sg797
I1
sg798
I0
sg799
I1
stp815
Rp816
(dp817
g64
g7
sbssI13
(dp818
I0
g0
(g57
g58
(dp819
g192
I0
sg794
I1
sg795
I0
sg796
I2
sg797
I1
sg798
I0
sg799
I1
stp820
Rp821
(dp822
g64
g7
sbssI14
(dp823
I0
g0
(g57
g58
(dp824
g192
I0
sg794
I1
sg795
I0
sg796
I2
sg797
I1
sg798
I0
sg799
I1
stp825
Rp826
(dp827
g64
g7
sbssI15
(dp828
I0
g0
(g57
g58
(dp829
g192
I0
sg794
I1
sg795
I0
sg796
I2
sg797
I1
sg798
I0
sg799
I1
stp830
Rp831
(dp832
g64
g7
sbssI16
(dp833
I0
g0
(g57
g58
(dp834
g192
I0
sg794
I1
sg795
I0
sg796
I2
sg797
I1
sg798
I0
sg799
I1
stp835
Rp836
(dp837
g64
g7
sbssI25
(dp838
I0
g0
(g57
g58
(dp839
g192
I0
sg794
I1
sg795
I0
sg796
I2
sg797
I1
sg798
I0
sg799
I1
stp840
Rp841
(dp842
g64
g7
sbssI27
(dp843
I0
g0
(g57
g58
(dp844
g192
I0
sg794
I1
sg795
I0
sg796
I2
sg797
I1
sg798
I0
sg799
I1
stp845
Rp846
(dp847
g64
g7
sbssI28
(dp848
I0
g0
(g57
g58
(dp849
g192
I0
sg794
I1
sg795
I0
sg796
I2
sg797
I1
sg798
I0
sg799
I1
stp850
Rp851
(dp852
g64
g7
sbsssI27
(dp853
g206
(dp854
I0
g0
(g57
g58
(dp855
g197
I0
sS'noHXfreeze'
p856
I1
sS'tempCold'
p857
I0
sS'level'
p858
I1
sS'trackfl'
p859
I1
sS'tempHot'
p860
I0
sS'tempGood'
p861
I1
stp862
Rp863
(dp864
g64
g7
sbssI28
(dp865
I0
g0
(g57
g58
(dp866
g197
I0
sg856
I1
sg857
I0
sg858
I1
sg859
I1
sg860
I0
sg861
I1
stp867
Rp868
(dp869
g64
g7
sbssI14
(dp870
I0
g0
(g57
g58
(dp871
g197
I0
sg856
I1
sg857
I0
sg858
I1
sg859
I1
sg860
I0
sg861
I1
stp872
Rp873
(dp874
g64
g7
sbsssI28
(dp875
g206
(dp876
I0
g0
(g57
g58
(dp877
g202
I1
sS'noHXfreeze'
p878
I0
sS'tempCold'
p879
I0
sS'level'
p880
I1
sS'trackfl'
p881
I1
sS'tempHot'
p882
I0
sS'tempGood'
p883
I1
stp884
Rp885
(dp886
g64
g7
sbsssg206
(dp887
ssS'succ'
p888
(dp889
I0
(dp890
I2
g249
sI26
g792
sI15
g525
ssI1
(dp891
I8
g346
sI10
g410
sI11
g452
ssI2
(dp892
I26
g803
sI14
g509
sI15
g536
ssI3
(dp893
I2
g265
sI26
g808
sI15
g541
ssI4
(dp894
I10
g421
sI3
g276
sI5
g316
ssI5
(dp895
I8
g357
sI1
g237
sI10
g426
ssI6
(dp896
I25
g786
sI26
g813
sI15
g546
ssI7
(dp897
I8
g362
sI9
g404
sI6
g322
ssI8
(dp898
I10
g431
sI4
g288
sI5
g300
ssI9
(dp899
I8
g367
sI10
g436
sI5
g311
ssI10
(dp900
I8
g372
sI9
g388
sI7
g334
ssI11
(dp901
I8
g377
sI9
g399
sI10
g441
ssI12
(dp902
I8
g382
sI10
g446
sI11
g463
ssI13
(dp903
I26
g818
sI12
g469
sI14
g514
ssI14
(dp904
I26
g823
sI27
g870
sI15
g551
ssI15
(dp905
I26
g828
sI13
g481
sI14
g519
ssI16
(dp906
I26
g833
sI14
g493
sI15
g556
ssI17
(dp907
I20
g640
sI21
g662
sI22
g699
ssI18
(dp908
I17
g599
sI21
g673
sI22
g710
ssI19
(dp909
I18
g611
sI21
g678
sI22
g715
ssI20
(dp910
I19
g623
sI21
g683
sI22
g720
ssI21
(dp911
I0
g225
sI20
g651
sI22
g725
ssI22
(dp912
I16
g587
sI19
g634
sI21
g688
ssI23
(dp913
I20
g656
sI21
g693
sI22
g730
ssI24
(dp914
I25
g760
sI15
g561
sI23
g736
ssI25
(dp915
I2
g260
sI26
g838
sI15
g566
ssI26
(dp916
I24
g748
sI25
g776
sI15
g571
ssI27
(dp917
I25
g781
sI26
g843
sI15
g576
ssI28
(dp918
I26
g848
sI27
g865
sI15
g581
ssg206
(dp919
I25
g771
sI2
g270
sI27
g854
sI28
g876
sI14
g504
sssS'default_layout'
p920
S'dot'
p921
sS'_edge_label_types'
p922
g7
sS'_state_dot_label_format'
p923
(dp924
g8
g8
sS'separator'
p925
S'\\n'
p926
sS'type?label'
p927
S':'
p928
ssS'edge'
p929
g889
sS'_transition_dot_label_format'
p930
(dp931
g8
S'/out:loc'
p932
sg13
S'/out:noHXfreeze'
p933
sg927
g928
sg17
g17
sg21
S'/out:tempCold'
p934
sg25
S'/out:tempGood'
p935
sg29
S'/out:trackfl'
p936
sg925
g926
sg33
S'/out:tempHot'
p937
ssg53
(dp938
sS'dot_node_shape'
p939
(dp940
S'normal'
p941
S'ellipse'
p942
ssS'_node_label_types'
p943
g65
sS'adj'
p944
g889
sS'_transition_dot_mask'
p945
(dp946
g8
c__builtin__
bool
p947
sg13
g947
sg21
g947
sg25
g947
sg29
g947
sg33
g947
ssS'default_export_fname'
p948
S'mealy'
p949
sS'states'
p950
g0
(ctulip.transys.labeled_graphs
States
p951
g2
Ntp952
Rp953
(dp954
g53
g4
sS'_current'
p955
g0
(ctulip.transys.mathset
SubSet
p956
g2
Ntp957
Rp958
(dp959
S'_superset'
p960
g953
sS'_list'
p961
(lp962
sS'_set'
p963
g9
((lp964
tp965
Rp966
sbsS'_initial'
p967
g0
(g956
g2
Ntp968
Rp969
(dp970
g960
g953
sg961
(lp971
sg963
g9
((lp972
g206
atp973
Rp974
sbsbsb.