ccopy_reg
_reconstructor
p0
(ctulip.transys.transys
OpenFTS
p1
c__builtin__
object
p2
Ntp3
Rp4
(dp5
S'_transition_label_def'
p6
(dp7
S'sys_actions'
p8
g0
(ctulip.transys.mathset
MathSet
p9
g2
Ntp10
Rp11
(dp12
S'_set'
p13
c__builtin__
set
p14
((lp15
tp16
Rp17
sS'_list'
p18
(lp19
sbsS'env_actions'
p20
g0
(g9
g2
Ntp21
Rp22
(dp23
g13
g14
((lp24
tp25
Rp26
sg18
(lp27
sbssg20
g22
sS'aps'
p28
g0
(g9
g2
Ntp29
Rp30
(dp31
g13
g14
((lp32
S'tempCold'
p33
aS'noHXfreeze'
p34
aS'tempHot'
p35
aS'tempGood'
p36
atp37
Rp38
sg18
(lp39
sbsS'actions'
p40
(dp41
g8
g11
sg20
g22
ssS'_edge_label_types'
p42
g7
sS'ap'
p43
g30
sS'transitions'
p44
g0
(ctulip.transys.labeled_graphs
Transitions
p45
g2
Ntp46
Rp47
(dp48
S'graph'
p49
g4
sS'_deterministic'
p50
I00
sbsS'sys_actions_must'
p51
S'xor'
p52
sg49
(dp53
sS'_state_dot_label_format'
p54
(dp55
g43
S''
p56
sS'separator'
p57
S'\\n'
p58
sS'type?label'
p59
g56
ssS'_transition_dot_label_format'
p60
(dp61
g8
S'sys'
p62
sg20
S'env'
p63
sg57
g58
sg59
S':'
p64
ssS'env_actions_must'
p65
g52
sg8
g11
sS'adj'
p66
(dp67
S's24'
p68
(dp69
g68
(dp70
I0
g0
(ctulip.transys.mathset
TypedDict
p71
c__builtin__
dict
p72
(dp73
tp74
Rp75
(dp76
S'allowed_values'
p77
g7
sbsssS's22'
p78
(dp79
S's8'
p80
(dp81
I0
g0
(g71
g72
(dp82
tp83
Rp84
(dp85
g77
g7
sbssS's38'
p86
(dp87
I0
g0
(g71
g72
(dp88
tp89
Rp90
(dp91
g77
g7
sbssS's1'
p92
(dp93
I0
g0
(g71
g72
(dp94
tp95
Rp96
(dp97
g77
g7
sbssS's10'
p98
(dp99
I0
g0
(g71
g72
(dp100
tp101
Rp102
(dp103
g77
g7
sbssS's31'
p104
(dp105
I0
g0
(g71
g72
(dp106
tp107
Rp108
(dp109
g77
g7
sbssS's15'
p110
(dp111
I0
g0
(g71
g72
(dp112
tp113
Rp114
(dp115
g77
g7
sbssg78
(dp116
I0
g0
(g71
g72
(dp117
tp118
Rp119
(dp120
g77
g7
sbssS's5'
p121
(dp122
I0
g0
(g71
g72
(dp123
tp124
Rp125
(dp126
g77
g7
sbsssS's9'
p127
(dp128
g127
(dp129
I0
g0
(g71
g72
(dp130
tp131
Rp132
(dp133
g77
g7
sbssg92
(dp134
I0
g0
(g71
g72
(dp135
tp136
Rp137
(dp138
g77
g7
sbssS's7'
p139
(dp140
I0
g0
(g71
g72
(dp141
tp142
Rp143
(dp144
g77
g7
sbssS's6'
p145
(dp146
I0
g0
(g71
g72
(dp147
tp148
Rp149
(dp150
g77
g7
sbssS's33'
p151
(dp152
I0
g0
(g71
g72
(dp153
tp154
Rp155
(dp156
g77
g7
sbssS's32'
p157
(dp158
I0
g0
(g71
g72
(dp159
tp160
Rp161
(dp162
g77
g7
sbssS's44'
p163
(dp164
I0
g0
(g71
g72
(dp165
tp166
Rp167
(dp168
g77
g7
sbssg110
(dp169
I0
g0
(g71
g72
(dp170
tp171
Rp172
(dp173
g77
g7
sbssS's37'
p174
(dp175
I0
g0
(g71
g72
(dp176
tp177
Rp178
(dp179
g77
g7
sbsssg80
(dp180
g80
(dp181
I0
g0
(g71
g72
(dp182
tp183
Rp184
(dp185
g77
g7
sbssg86
(dp186
I0
g0
(g71
g72
(dp187
tp188
Rp189
(dp190
g77
g7
sbssS's3'
p191
(dp192
I0
g0
(g71
g72
(dp193
tp194
Rp195
(dp196
g77
g7
sbssg98
(dp197
I0
g0
(g71
g72
(dp198
tp199
Rp200
(dp201
g77
g7
sbssg104
(dp202
I0
g0
(g71
g72
(dp203
tp204
Rp205
(dp206
g77
g7
sbssg121
(dp207
I0
g0
(g71
g72
(dp208
tp209
Rp210
(dp211
g77
g7
sbssS's28'
p212
(dp213
I0
g0
(g71
g72
(dp214
tp215
Rp216
(dp217
g77
g7
sbssS's29'
p218
(dp219
I0
g0
(g71
g72
(dp220
tp221
Rp222
(dp223
g77
g7
sbsssS's17'
p224
(dp225
S's19'
p226
(dp227
I0
g0
(g71
g72
(dp228
tp229
Rp230
(dp231
g77
g7
sbssS's18'
p232
(dp233
I0
g0
(g71
g72
(dp234
tp235
Rp236
(dp237
g77
g7
sbssS's2'
p238
(dp239
I0
g0
(g71
g72
(dp240
tp241
Rp242
(dp243
g77
g7
sbssg224
(dp244
I0
g0
(g71
g72
(dp245
tp246
Rp247
(dp248
g77
g7
sbssS's30'
p249
(dp250
I0
g0
(g71
g72
(dp251
tp252
Rp253
(dp254
g77
g7
sbssS's40'
p255
(dp256
I0
g0
(g71
g72
(dp257
tp258
Rp259
(dp260
g77
g7
sbssS's42'
p261
(dp262
I0
g0
(g71
g72
(dp263
tp264
Rp265
(dp266
g77
g7
sbssg212
(dp267
I0
g0
(g71
g72
(dp268
tp269
Rp270
(dp271
g77
g7
sbsssS's23'
p272
(dp273
S's45'
p274
(dp275
I0
g0
(g71
g72
(dp276
tp277
Rp278
(dp279
g77
g7
sbssS's12'
p280
(dp281
I0
g0
(g71
g72
(dp282
tp283
Rp284
(dp285
g77
g7
sbssg272
(dp286
I0
g0
(g71
g72
(dp287
tp288
Rp289
(dp290
g77
g7
sbssS's46'
p291
(dp292
I0
g0
(g71
g72
(dp293
tp294
Rp295
(dp296
g77
g7
sbssg68
(dp297
I0
g0
(g71
g72
(dp298
tp299
Rp300
(dp301
g77
g7
sbssS's25'
p302
(dp303
I0
g0
(g71
g72
(dp304
tp305
Rp306
(dp307
g77
g7
sbsssg191
(dp308
g80
(dp309
I0
g0
(g71
g72
(dp310
tp311
Rp312
(dp313
g77
g7
sbssg191
(dp314
I0
g0
(g71
g72
(dp315
tp316
Rp317
(dp318
g77
g7
sbssg98
(dp319
I0
g0
(g71
g72
(dp320
tp321
Rp322
(dp323
g77
g7
sbssg249
(dp324
I0
g0
(g71
g72
(dp325
tp326
Rp327
(dp328
g77
g7
sbssg121
(dp329
I0
g0
(g71
g72
(dp330
tp331
Rp332
(dp333
g77
g7
sbssS's20'
p334
(dp335
I0
g0
(g71
g72
(dp336
tp337
Rp338
(dp339
g77
g7
sbssg212
(dp340
I0
g0
(g71
g72
(dp341
tp342
Rp343
(dp344
g77
g7
sbssg218
(dp345
I0
g0
(g71
g72
(dp346
tp347
Rp348
(dp349
g77
g7
sbsssg238
(dp350
S's13'
p351
(dp352
I0
g0
(g71
g72
(dp353
tp354
Rp355
(dp356
g77
g7
sbssg238
(dp357
I0
g0
(g71
g72
(dp358
tp359
Rp360
(dp361
g77
g7
sbssg224
(dp362
I0
g0
(g71
g72
(dp363
tp364
Rp365
(dp366
g77
g7
sbssg249
(dp367
I0
g0
(g71
g72
(dp368
tp369
Rp370
(dp371
g77
g7
sbssg121
(dp372
I0
g0
(g71
g72
(dp373
tp374
Rp375
(dp376
g77
g7
sbssS's14'
p377
(dp378
I0
g0
(g71
g72
(dp379
tp380
Rp381
(dp382
g77
g7
sbssg255
(dp383
I0
g0
(g71
g72
(dp384
tp385
Rp386
(dp387
g77
g7
sbssg212
(dp388
I0
g0
(g71
g72
(dp389
tp390
Rp391
(dp392
g77
g7
sbssg218
(dp393
I0
g0
(g71
g72
(dp394
tp395
Rp396
(dp397
g77
g7
sbssS's48'
p398
(dp399
I0
g0
(g71
g72
(dp400
tp401
Rp402
(dp403
g77
g7
sbsssg92
(dp404
g78
(dp405
I0
g0
(g71
g72
(dp406
tp407
Rp408
(dp409
g77
g7
sbssg127
(dp410
I0
g0
(g71
g72
(dp411
tp412
Rp413
(dp414
g77
g7
sbssg92
(dp415
I0
g0
(g71
g72
(dp416
tp417
Rp418
(dp419
g77
g7
sbssg104
(dp420
I0
g0
(g71
g72
(dp421
tp422
Rp423
(dp424
g77
g7
sbssg145
(dp425
I0
g0
(g71
g72
(dp426
tp427
Rp428
(dp429
g77
g7
sbssg110
(dp430
I0
g0
(g71
g72
(dp431
tp432
Rp433
(dp434
g77
g7
sbssg163
(dp435
I0
g0
(g71
g72
(dp436
tp437
Rp438
(dp439
g77
g7
sbssg121
(dp440
I0
g0
(g71
g72
(dp441
tp442
Rp443
(dp444
g77
g7
sbsssS's0'
p445
(dp446
g174
(dp447
I0
g0
(g71
g72
(dp448
tp449
Rp450
(dp451
g77
g7
sbssg445
(dp452
I0
g0
(g71
g72
(dp453
tp454
Rp455
(dp456
g77
g7
sbssg104
(dp457
I0
g0
(g71
g72
(dp458
tp459
Rp460
(dp461
g77
g7
sbssS's16'
p462
(dp463
I0
g0
(g71
g72
(dp464
tp465
Rp466
(dp467
g77
g7
sbssg121
(dp468
I0
g0
(g71
g72
(dp469
tp470
Rp471
(dp472
g77
g7
sbssg145
(dp473
I0
g0
(g71
g72
(dp474
tp475
Rp476
(dp477
g77
g7
sbssS's21'
p478
(dp479
I0
g0
(g71
g72
(dp480
tp481
Rp482
(dp483
g77
g7
sbssg157
(dp484
I0
g0
(g71
g72
(dp485
tp486
Rp487
(dp488
g77
g7
sbssS's49'
p489
(dp490
I0
g0
(g71
g72
(dp491
tp492
Rp493
(dp494
g77
g7
sbsssg139
(dp495
g127
(dp496
I0
g0
(g71
g72
(dp497
tp498
Rp499
(dp500
g77
g7
sbssg174
(dp501
I0
g0
(g71
g72
(dp502
tp503
Rp504
(dp505
g77
g7
sbssg139
(dp506
I0
g0
(g71
g72
(dp507
tp508
Rp509
(dp510
g77
g7
sbssg145
(dp511
I0
g0
(g71
g72
(dp512
tp513
Rp514
(dp515
g77
g7
sbssg110
(dp516
I0
g0
(g71
g72
(dp517
tp518
Rp519
(dp520
g77
g7
sbssg151
(dp521
I0
g0
(g71
g72
(dp522
tp523
Rp524
(dp525
g77
g7
sbsssg145
(dp526
g462
(dp527
I0
g0
(g71
g72
(dp528
tp529
Rp530
(dp531
g77
g7
sbssS's35'
p532
(dp533
I0
g0
(g71
g72
(dp534
tp535
Rp536
(dp537
g77
g7
sbssS's34'
p538
(dp539
I0
g0
(g71
g72
(dp540
tp541
Rp542
(dp543
g77
g7
sbssg174
(dp544
I0
g0
(g71
g72
(dp545
tp546
Rp547
(dp548
g77
g7
sbssg445
(dp549
I0
g0
(g71
g72
(dp550
tp551
Rp552
(dp553
g77
g7
sbssg145
(dp554
I0
g0
(g71
g72
(dp555
tp556
Rp557
(dp558
g77
g7
sbssg157
(dp559
I0
g0
(g71
g72
(dp560
tp561
Rp562
(dp563
g77
g7
sbssS's47'
p564
(dp565
I0
g0
(g71
g72
(dp566
tp567
Rp568
(dp569
g77
g7
sbssg280
(dp570
I0
g0
(g71
g72
(dp571
tp572
Rp573
(dp574
g77
g7
sbssS's11'
p575
(dp576
I0
g0
(g71
g72
(dp577
tp578
Rp579
(dp580
g77
g7
sbssg489
(dp581
I0
g0
(g71
g72
(dp582
tp583
Rp584
(dp585
g77
g7
sbsssg121
(dp586
g351
(dp587
I0
g0
(g71
g72
(dp588
tp589
Rp590
(dp591
g77
g7
sbssg238
(dp592
I0
g0
(g71
g72
(dp593
tp594
Rp595
(dp596
g77
g7
sbssg104
(dp597
I0
g0
(g71
g72
(dp598
tp599
Rp600
(dp601
g77
g7
sbssg121
(dp602
I0
g0
(g71
g72
(dp603
tp604
Rp605
(dp606
g77
g7
sbssg377
(dp607
I0
g0
(g71
g72
(dp608
tp609
Rp610
(dp611
g77
g7
sbssg478
(dp612
I0
g0
(g71
g72
(dp613
tp614
Rp615
(dp616
g77
g7
sbssS's41'
p617
(dp618
I0
g0
(g71
g72
(dp619
tp620
Rp621
(dp622
g77
g7
sbssg212
(dp623
I0
g0
(g71
g72
(dp624
tp625
Rp626
(dp627
g77
g7
sbssg218
(dp628
I0
g0
(g71
g72
(dp629
tp630
Rp631
(dp632
g77
g7
sbssg398
(dp633
I0
g0
(g71
g72
(dp634
tp635
Rp636
(dp637
g77
g7
sbsssS's4'
p638
(dp639
g532
(dp640
I0
g0
(g71
g72
(dp641
tp642
Rp643
(dp644
g77
g7
sbssg280
(dp645
I0
g0
(g71
g72
(dp646
tp647
Rp648
(dp649
g77
g7
sbssS's36'
p650
(dp651
I0
g0
(g71
g72
(dp652
tp653
Rp654
(dp655
g77
g7
sbssg145
(dp656
I0
g0
(g71
g72
(dp657
tp658
Rp659
(dp660
g77
g7
sbssg638
(dp661
I0
g0
(g71
g72
(dp662
tp663
Rp664
(dp665
g77
g7
sbssg291
(dp666
I0
g0
(g71
g72
(dp667
tp668
Rp669
(dp670
g77
g7
sbssg564
(dp671
I0
g0
(g71
g72
(dp672
tp673
Rp674
(dp675
g77
g7
sbssS's26'
p676
(dp677
I0
g0
(g71
g72
(dp678
tp679
Rp680
(dp681
g77
g7
sbssS's27'
p682
(dp683
I0
g0
(g71
g72
(dp684
tp685
Rp686
(dp687
g77
g7
sbsssg351
(dp688
g351
(dp689
I0
g0
(g71
g72
(dp690
tp691
Rp692
(dp693
g77
g7
sbssg617
(dp694
I0
g0
(g71
g72
(dp695
tp696
Rp697
(dp698
g77
g7
sbssg121
(dp699
I0
g0
(g71
g72
(dp700
tp701
Rp702
(dp703
g77
g7
sbssg377
(dp704
I0
g0
(g71
g72
(dp705
tp706
Rp707
(dp708
g77
g7
sbsssg478
(dp709
g445
(dp710
I0
g0
(g71
g72
(dp711
tp712
Rp713
(dp714
g77
g7
sbssg462
(dp715
I0
g0
(g71
g72
(dp716
tp717
Rp718
(dp719
g77
g7
sbssg121
(dp720
I0
g0
(g71
g72
(dp721
tp722
Rp723
(dp724
g77
g7
sbssg377
(dp725
I0
g0
(g71
g72
(dp726
tp727
Rp728
(dp729
g77
g7
sbssg478
(dp730
I0
g0
(g71
g72
(dp731
tp732
Rp733
(dp734
g77
g7
sbssg157
(dp735
I0
g0
(g71
g72
(dp736
tp737
Rp738
(dp739
g77
g7
sbssg489
(dp740
I0
g0
(g71
g72
(dp741
tp742
Rp743
(dp744
g77
g7
sbsssg280
(dp745
g280
(dp746
I0
g0
(g71
g72
(dp747
tp748
Rp749
(dp750
g77
g7
sbssg575
(dp751
I0
g0
(g71
g72
(dp752
tp753
Rp754
(dp755
g77
g7
sbssg145
(dp756
I0
g0
(g71
g72
(dp757
tp758
Rp759
(dp760
g77
g7
sbssg462
(dp761
I0
g0
(g71
g72
(dp762
tp763
Rp764
(dp765
g77
g7
sbssg274
(dp766
I0
g0
(g71
g72
(dp767
tp768
Rp769
(dp770
g77
g7
sbssg291
(dp771
I0
g0
(g71
g72
(dp772
tp773
Rp774
(dp775
g77
g7
sbssg564
(dp776
I0
g0
(g71
g72
(dp777
tp778
Rp779
(dp780
g77
g7
sbsssg676
(dp781
g274
(dp782
I0
g0
(g71
g72
(dp783
tp784
Rp785
(dp786
g77
g7
sbssg280
(dp787
I0
g0
(g71
g72
(dp788
tp789
Rp790
(dp791
g77
g7
sbssg650
(dp792
I0
g0
(g71
g72
(dp793
tp794
Rp795
(dp796
g77
g7
sbssg638
(dp797
I0
g0
(g71
g72
(dp798
tp799
Rp800
(dp801
g77
g7
sbssg272
(dp802
I0
g0
(g71
g72
(dp803
tp804
Rp805
(dp806
g77
g7
sbssg291
(dp807
I0
g0
(g71
g72
(dp808
tp809
Rp810
(dp811
g77
g7
sbssg676
(dp812
I0
g0
(g71
g72
(dp813
tp814
Rp815
(dp816
g77
g7
sbssg682
(dp817
I0
g0
(g71
g72
(dp818
tp819
Rp820
(dp821
g77
g7
sbssg302
(dp822
I0
g0
(g71
g72
(dp823
tp824
Rp825
(dp826
g77
g7
sbsssg575
(dp827
g280
(dp828
I0
g0
(g71
g72
(dp829
tp830
Rp831
(dp832
g77
g7
sbssg575
(dp833
I0
g0
(g71
g72
(dp834
tp835
Rp836
(dp837
g77
g7
sbssg462
(dp838
I0
g0
(g71
g72
(dp839
tp840
Rp841
(dp842
g77
g7
sbssg145
(dp843
I0
g0
(g71
g72
(dp844
tp845
Rp846
(dp847
g77
g7
sbsssg682
(dp848
g650
(dp849
I0
g0
(g71
g72
(dp850
tp851
Rp852
(dp853
g77
g7
sbssg638
(dp854
I0
g0
(g71
g72
(dp855
tp856
Rp857
(dp858
g77
g7
sbssg272
(dp859
I0
g0
(g71
g72
(dp860
tp861
Rp862
(dp863
g77
g7
sbssg676
(dp864
I0
g0
(g71
g72
(dp865
tp866
Rp867
(dp868
g77
g7
sbssg682
(dp869
I0
g0
(g71
g72
(dp870
tp871
Rp872
(dp873
g77
g7
sbssg302
(dp874
I0
g0
(g71
g72
(dp875
tp876
Rp877
(dp878
g77
g7
sbsssg226
(dp879
g226
(dp880
I0
g0
(g71
g72
(dp881
tp882
Rp883
(dp884
g77
g7
sbssg232
(dp885
I0
g0
(g71
g72
(dp886
tp887
Rp888
(dp889
g77
g7
sbssg224
(dp890
I0
g0
(g71
g72
(dp891
tp892
Rp893
(dp894
g77
g7
sbssg249
(dp895
I0
g0
(g71
g72
(dp896
tp897
Rp898
(dp899
g77
g7
sbssg255
(dp900
I0
g0
(g71
g72
(dp901
tp902
Rp903
(dp904
g77
g7
sbssg261
(dp905
I0
g0
(g71
g72
(dp906
tp907
Rp908
(dp909
g77
g7
sbsssg232
(dp910
g226
(dp911
I0
g0
(g71
g72
(dp912
tp913
Rp914
(dp915
g77
g7
sbssg232
(dp916
I0
g0
(g71
g72
(dp917
tp918
Rp919
(dp920
g77
g7
sbssg224
(dp921
I0
g0
(g71
g72
(dp922
tp923
Rp924
(dp925
g77
g7
sbssg249
(dp926
I0
g0
(g71
g72
(dp927
tp928
Rp929
(dp930
g77
g7
sbssg334
(dp931
I0
g0
(g71
g72
(dp932
tp933
Rp934
(dp935
g77
g7
sbssS's50'
p936
(dp937
I0
g0
(g71
g72
(dp938
tp939
Rp940
(dp941
g77
g7
sbsssS's39'
p942
(dp943
g232
(dp944
I0
g0
(g71
g72
(dp945
tp946
Rp947
(dp948
g77
g7
sbssg942
(dp949
I0
g0
(g71
g72
(dp950
tp951
Rp952
(dp953
g77
g7
sbssS's43'
p954
(dp955
I0
g0
(g71
g72
(dp956
tp957
Rp958
(dp959
g77
g7
sbsssg86
(dp960
g80
(dp961
I0
g0
(g71
g72
(dp962
tp963
Rp964
(dp965
g77
g7
sbssg86
(dp966
I0
g0
(g71
g72
(dp967
tp968
Rp969
(dp970
g77
g7
sbssg98
(dp971
I0
g0
(g71
g72
(dp972
tp973
Rp974
(dp975
g77
g7
sbssg104
(dp976
I0
g0
(g71
g72
(dp977
tp978
Rp979
(dp980
g77
g7
sbssg78
(dp981
I0
g0
(g71
g72
(dp982
tp983
Rp984
(dp985
g77
g7
sbssg218
(dp986
I0
g0
(g71
g72
(dp987
tp988
Rp989
(dp990
g77
g7
sbsssg532
(dp991
g532
(dp992
I0
g0
(g71
g72
(dp993
tp994
Rp995
(dp996
g77
g7
sbssg538
(dp997
I0
g0
(g71
g72
(dp998
tp999
Rp1000
(dp1001
g77
g7
sbssg174
(dp1002
I0
g0
(g71
g72
(dp1003
tp1004
Rp1005
(dp1006
g77
g7
sbssg650
(dp1007
I0
g0
(g71
g72
(dp1008
tp1009
Rp1010
(dp1011
g77
g7
sbssg145
(dp1012
I0
g0
(g71
g72
(dp1013
tp1014
Rp1015
(dp1016
g77
g7
sbssg638
(dp1017
I0
g0
(g71
g72
(dp1018
tp1019
Rp1020
(dp1021
g77
g7
sbssg564
(dp1022
I0
g0
(g71
g72
(dp1023
tp1024
Rp1025
(dp1026
g77
g7
sbsssg538
(dp1027
g532
(dp1028
I0
g0
(g71
g72
(dp1029
tp1030
Rp1031
(dp1032
g77
g7
sbssg538
(dp1033
I0
g0
(g71
g72
(dp1034
tp1035
Rp1036
(dp1037
g77
g7
sbssg174
(dp1038
I0
g0
(g71
g72
(dp1039
tp1040
Rp1041
(dp1042
g77
g7
sbssg145
(dp1043
I0
g0
(g71
g72
(dp1044
tp1045
Rp1046
(dp1047
g77
g7
sbssg151
(dp1048
I0
g0
(g71
g72
(dp1049
tp1050
Rp1051
(dp1052
g77
g7
sbssg564
(dp1053
I0
g0
(g71
g72
(dp1054
tp1055
Rp1056
(dp1057
g77
g7
sbsssg174
(dp1058
g127
(dp1059
I0
g0
(g71
g72
(dp1060
tp1061
Rp1062
(dp1063
g77
g7
sbssg532
(dp1064
I0
g0
(g71
g72
(dp1065
tp1066
Rp1067
(dp1068
g77
g7
sbssg538
(dp1069
I0
g0
(g71
g72
(dp1070
tp1071
Rp1072
(dp1073
g77
g7
sbssg174
(dp1074
I0
g0
(g71
g72
(dp1075
tp1076
Rp1077
(dp1078
g77
g7
sbssg445
(dp1079
I0
g0
(g71
g72
(dp1080
tp1081
Rp1082
(dp1083
g77
g7
sbssg139
(dp1084
I0
g0
(g71
g72
(dp1085
tp1086
Rp1087
(dp1088
g77
g7
sbssg145
(dp1089
I0
g0
(g71
g72
(dp1090
tp1091
Rp1092
(dp1093
g77
g7
sbssg151
(dp1094
I0
g0
(g71
g72
(dp1095
tp1096
Rp1097
(dp1098
g77
g7
sbssg157
(dp1099
I0
g0
(g71
g72
(dp1100
tp1101
Rp1102
(dp1103
g77
g7
sbssg163
(dp1104
I0
g0
(g71
g72
(dp1105
tp1106
Rp1107
(dp1108
g77
g7
sbsssg98
(dp1109
g191
(dp1110
I0
g0
(g71
g72
(dp1111
tp1112
Rp1113
(dp1114
g77
g7
sbssg334
(dp1115
I0
g0
(g71
g72
(dp1116
tp1117
Rp1118
(dp1119
g77
g7
sbssg80
(dp1120
I0
g0
(g71
g72
(dp1121
tp1122
Rp1123
(dp1124
g77
g7
sbssg86
(dp1125
I0
g0
(g71
g72
(dp1126
tp1127
Rp1128
(dp1129
g77
g7
sbssg98
(dp1130
I0
g0
(g71
g72
(dp1131
tp1132
Rp1133
(dp1134
g77
g7
sbsssg104
(dp1135
g92
(dp1136
I0
g0
(g71
g72
(dp1137
tp1138
Rp1139
(dp1140
g77
g7
sbssg445
(dp1141
I0
g0
(g71
g72
(dp1142
tp1143
Rp1144
(dp1145
g77
g7
sbssg104
(dp1146
I0
g0
(g71
g72
(dp1147
tp1148
Rp1149
(dp1150
g77
g7
sbssg121
(dp1151
I0
g0
(g71
g72
(dp1152
tp1153
Rp1154
(dp1155
g77
g7
sbssg157
(dp1156
I0
g0
(g71
g72
(dp1157
tp1158
Rp1159
(dp1160
g77
g7
sbssg163
(dp1161
I0
g0
(g71
g72
(dp1162
tp1163
Rp1164
(dp1165
g77
g7
sbssg478
(dp1166
I0
g0
(g71
g72
(dp1167
tp1168
Rp1169
(dp1170
g77
g7
sbssg218
(dp1171
I0
g0
(g71
g72
(dp1172
tp1173
Rp1174
(dp1175
g77
g7
sbsssg462
(dp1176
g575
(dp1177
I0
g0
(g71
g72
(dp1178
tp1179
Rp1180
(dp1181
g77
g7
sbssg478
(dp1182
I0
g0
(g71
g72
(dp1183
tp1184
Rp1185
(dp1186
g77
g7
sbssg462
(dp1187
I0
g0
(g71
g72
(dp1188
tp1189
Rp1190
(dp1191
g77
g7
sbssg377
(dp1192
I0
g0
(g71
g72
(dp1193
tp1194
Rp1195
(dp1196
g77
g7
sbssg489
(dp1197
I0
g0
(g71
g72
(dp1198
tp1199
Rp1200
(dp1201
g77
g7
sbsssg110
(dp1202
g78
(dp1203
I0
g0
(g71
g72
(dp1204
tp1205
Rp1206
(dp1207
g77
g7
sbssg92
(dp1208
I0
g0
(g71
g72
(dp1209
tp1210
Rp1211
(dp1212
g77
g7
sbssg139
(dp1213
I0
g0
(g71
g72
(dp1214
tp1215
Rp1216
(dp1217
g77
g7
sbssg127
(dp1218
I0
g0
(g71
g72
(dp1219
tp1220
Rp1221
(dp1222
g77
g7
sbssg110
(dp1223
I0
g0
(g71
g72
(dp1224
tp1225
Rp1226
(dp1227
g77
g7
sbsssg377
(dp1228
g351
(dp1229
I0
g0
(g71
g72
(dp1230
tp1231
Rp1232
(dp1233
g77
g7
sbssg462
(dp1234
I0
g0
(g71
g72
(dp1235
tp1236
Rp1237
(dp1238
g77
g7
sbssg121
(dp1239
I0
g0
(g71
g72
(dp1240
tp1241
Rp1242
(dp1243
g77
g7
sbssg377
(dp1244
I0
g0
(g71
g72
(dp1245
tp1246
Rp1247
(dp1248
g77
g7
sbssg478
(dp1249
I0
g0
(g71
g72
(dp1250
tp1251
Rp1252
(dp1253
g77
g7
sbssg617
(dp1254
I0
g0
(g71
g72
(dp1255
tp1256
Rp1257
(dp1258
g77
g7
sbsssg334
(dp1259
g232
(dp1260
I0
g0
(g71
g72
(dp1261
tp1262
Rp1263
(dp1264
g77
g7
sbssg191
(dp1265
I0
g0
(g71
g72
(dp1266
tp1267
Rp1268
(dp1269
g77
g7
sbssg98
(dp1270
I0
g0
(g71
g72
(dp1271
tp1272
Rp1273
(dp1274
g77
g7
sbssg249
(dp1275
I0
g0
(g71
g72
(dp1276
tp1277
Rp1278
(dp1279
g77
g7
sbssg334
(dp1280
I0
g0
(g71
g72
(dp1281
tp1282
Rp1283
(dp1284
g77
g7
sbssg212
(dp1285
I0
g0
(g71
g72
(dp1286
tp1287
Rp1288
(dp1289
g77
g7
sbsssg151
(dp1290
g127
(dp1291
I0
g0
(g71
g72
(dp1292
tp1293
Rp1294
(dp1295
g77
g7
sbssg532
(dp1296
I0
g0
(g71
g72
(dp1297
tp1298
Rp1299
(dp1300
g77
g7
sbssg538
(dp1301
I0
g0
(g71
g72
(dp1302
tp1303
Rp1304
(dp1305
g77
g7
sbssg174
(dp1306
I0
g0
(g71
g72
(dp1307
tp1308
Rp1309
(dp1310
g77
g7
sbssg139
(dp1311
I0
g0
(g71
g72
(dp1312
tp1313
Rp1314
(dp1315
g77
g7
sbssg145
(dp1316
I0
g0
(g71
g72
(dp1317
tp1318
Rp1319
(dp1320
g77
g7
sbssg151
(dp1321
I0
g0
(g71
g72
(dp1322
tp1323
Rp1324
(dp1325
g77
g7
sbsssg157
(dp1326
g127
(dp1327
I0
g0
(g71
g72
(dp1328
tp1329
Rp1330
(dp1331
g77
g7
sbssg174
(dp1332
I0
g0
(g71
g72
(dp1333
tp1334
Rp1335
(dp1336
g77
g7
sbssg445
(dp1337
I0
g0
(g71
g72
(dp1338
tp1339
Rp1340
(dp1341
g77
g7
sbssg104
(dp1342
I0
g0
(g71
g72
(dp1343
tp1344
Rp1345
(dp1346
g77
g7
sbssg145
(dp1347
I0
g0
(g71
g72
(dp1348
tp1349
Rp1350
(dp1351
g77
g7
sbssg157
(dp1352
I0
g0
(g71
g72
(dp1353
tp1354
Rp1355
(dp1356
g77
g7
sbssg163
(dp1357
I0
g0
(g71
g72
(dp1358
tp1359
Rp1360
(dp1361
g77
g7
sbssg478
(dp1362
I0
g0
(g71
g72
(dp1363
tp1364
Rp1365
(dp1366
g77
g7
sbsssg249
(dp1367
g226
(dp1368
I0
g0
(g71
g72
(dp1369
tp1370
Rp1371
(dp1372
g77
g7
sbssg232
(dp1373
I0
g0
(g71
g72
(dp1374
tp1375
Rp1376
(dp1377
g77
g7
sbssg191
(dp1378
I0
g0
(g71
g72
(dp1379
tp1380
Rp1381
(dp1382
g77
g7
sbssg238
(dp1383
I0
g0
(g71
g72
(dp1384
tp1385
Rp1386
(dp1387
g77
g7
sbssg224
(dp1388
I0
g0
(g71
g72
(dp1389
tp1390
Rp1391
(dp1392
g77
g7
sbssg249
(dp1393
I0
g0
(g71
g72
(dp1394
tp1395
Rp1396
(dp1397
g77
g7
sbssg334
(dp1398
I0
g0
(g71
g72
(dp1399
tp1400
Rp1401
(dp1402
g77
g7
sbssg212
(dp1403
I0
g0
(g71
g72
(dp1404
tp1405
Rp1406
(dp1407
g77
g7
sbsssg302
(dp1408
g272
(dp1409
I0
g0
(g71
g72
(dp1410
tp1411
Rp1412
(dp1413
g77
g7
sbssg676
(dp1414
I0
g0
(g71
g72
(dp1415
tp1416
Rp1417
(dp1418
g77
g7
sbssg682
(dp1419
I0
g0
(g71
g72
(dp1420
tp1421
Rp1422
(dp1423
g77
g7
sbssg302
(dp1424
I0
g0
(g71
g72
(dp1425
tp1426
Rp1427
(dp1428
g77
g7
sbsssg163
(dp1429
g127
(dp1430
I0
g0
(g71
g72
(dp1431
tp1432
Rp1433
(dp1434
g77
g7
sbssg92
(dp1435
I0
g0
(g71
g72
(dp1436
tp1437
Rp1438
(dp1439
g77
g7
sbssg104
(dp1440
I0
g0
(g71
g72
(dp1441
tp1442
Rp1443
(dp1444
g77
g7
sbssg157
(dp1445
I0
g0
(g71
g72
(dp1446
tp1447
Rp1448
(dp1449
g77
g7
sbssg163
(dp1450
I0
g0
(g71
g72
(dp1451
tp1452
Rp1453
(dp1454
g77
g7
sbssg174
(dp1455
I0
g0
(g71
g72
(dp1456
tp1457
Rp1458
(dp1459
g77
g7
sbsssg274
(dp1460
g280
(dp1461
I0
g0
(g71
g72
(dp1462
tp1463
Rp1464
(dp1465
g77
g7
sbssg291
(dp1466
I0
g0
(g71
g72
(dp1467
tp1468
Rp1469
(dp1470
g77
g7
sbssg272
(dp1471
I0
g0
(g71
g72
(dp1472
tp1473
Rp1474
(dp1475
g77
g7
sbssg676
(dp1476
I0
g0
(g71
g72
(dp1477
tp1478
Rp1479
(dp1480
g77
g7
sbssg274
(dp1481
I0
g0
(g71
g72
(dp1482
tp1483
Rp1484
(dp1485
g77
g7
sbsssg291
(dp1486
g272
(dp1487
I0
g0
(g71
g72
(dp1488
tp1489
Rp1490
(dp1491
g77
g7
sbssg280
(dp1492
I0
g0
(g71
g72
(dp1493
tp1494
Rp1495
(dp1496
g77
g7
sbssg638
(dp1497
I0
g0
(g71
g72
(dp1498
tp1499
Rp1500
(dp1501
g77
g7
sbssg274
(dp1502
I0
g0
(g71
g72
(dp1503
tp1504
Rp1505
(dp1506
g77
g7
sbssg291
(dp1507
I0
g0
(g71
g72
(dp1508
tp1509
Rp1510
(dp1511
g77
g7
sbssg564
(dp1512
I0
g0
(g71
g72
(dp1513
tp1514
Rp1515
(dp1516
g77
g7
sbssg676
(dp1517
I0
g0
(g71
g72
(dp1518
tp1519
Rp1520
(dp1521
g77
g7
sbsssg564
(dp1522
g532
(dp1523
I0
g0
(g71
g72
(dp1524
tp1525
Rp1526
(dp1527
g77
g7
sbssg538
(dp1528
I0
g0
(g71
g72
(dp1529
tp1530
Rp1531
(dp1532
g77
g7
sbssg145
(dp1533
I0
g0
(g71
g72
(dp1534
tp1535
Rp1536
(dp1537
g77
g7
sbssg638
(dp1538
I0
g0
(g71
g72
(dp1539
tp1540
Rp1541
(dp1542
g77
g7
sbssg291
(dp1543
I0
g0
(g71
g72
(dp1544
tp1545
Rp1546
(dp1547
g77
g7
sbssg564
(dp1548
I0
g0
(g71
g72
(dp1549
tp1550
Rp1551
(dp1552
g77
g7
sbssg280
(dp1553
I0
g0
(g71
g72
(dp1554
tp1555
Rp1556
(dp1557
g77
g7
sbsssg255
(dp1558
g238
(dp1559
I0
g0
(g71
g72
(dp1560
tp1561
Rp1562
(dp1563
g77
g7
sbssg398
(dp1564
I0
g0
(g71
g72
(dp1565
tp1566
Rp1567
(dp1568
g77
g7
sbssg255
(dp1569
I0
g0
(g71
g72
(dp1570
tp1571
Rp1572
(dp1573
g77
g7
sbssg617
(dp1574
I0
g0
(g71
g72
(dp1575
tp1576
Rp1577
(dp1578
g77
g7
sbssg261
(dp1579
I0
g0
(g71
g72
(dp1580
tp1581
Rp1582
(dp1583
g77
g7
sbsssg617
(dp1584
g351
(dp1585
I0
g0
(g71
g72
(dp1586
tp1587
Rp1588
(dp1589
g77
g7
sbssg121
(dp1590
I0
g0
(g71
g72
(dp1591
tp1592
Rp1593
(dp1594
g77
g7
sbssg377
(dp1595
I0
g0
(g71
g72
(dp1596
tp1597
Rp1598
(dp1599
g77
g7
sbssg255
(dp1600
I0
g0
(g71
g72
(dp1601
tp1602
Rp1603
(dp1604
g77
g7
sbssg617
(dp1605
I0
g0
(g71
g72
(dp1606
tp1607
Rp1608
(dp1609
g77
g7
sbssg398
(dp1610
I0
g0
(g71
g72
(dp1611
tp1612
Rp1613
(dp1614
g77
g7
sbsssg261
(dp1615
g224
(dp1616
I0
g0
(g71
g72
(dp1617
tp1618
Rp1619
(dp1620
g77
g7
sbssg226
(dp1621
I0
g0
(g71
g72
(dp1622
tp1623
Rp1624
(dp1625
g77
g7
sbssg255
(dp1626
I0
g0
(g71
g72
(dp1627
tp1628
Rp1629
(dp1630
g77
g7
sbssg261
(dp1631
I0
g0
(g71
g72
(dp1632
tp1633
Rp1634
(dp1635
g77
g7
sbsssg954
(dp1636
g936
(dp1637
I0
g0
(g71
g72
(dp1638
tp1639
Rp1640
(dp1641
g77
g7
sbssg226
(dp1642
I0
g0
(g71
g72
(dp1643
tp1644
Rp1645
(dp1646
g77
g7
sbssg232
(dp1647
I0
g0
(g71
g72
(dp1648
tp1649
Rp1650
(dp1651
g77
g7
sbssg942
(dp1652
I0
g0
(g71
g72
(dp1653
tp1654
Rp1655
(dp1656
g77
g7
sbssg954
(dp1657
I0
g0
(g71
g72
(dp1658
tp1659
Rp1660
(dp1661
g77
g7
sbsssg936
(dp1662
g226
(dp1663
I0
g0
(g71
g72
(dp1664
tp1665
Rp1666
(dp1667
g77
g7
sbssg232
(dp1668
I0
g0
(g71
g72
(dp1669
tp1670
Rp1671
(dp1672
g77
g7
sbssg936
(dp1673
I0
g0
(g71
g72
(dp1674
tp1675
Rp1676
(dp1677
g77
g7
sbsssg212
(dp1678
g80
(dp1679
I0
g0
(g71
g72
(dp1680
tp1681
Rp1682
(dp1683
g77
g7
sbssg191
(dp1684
I0
g0
(g71
g72
(dp1685
tp1686
Rp1687
(dp1688
g77
g7
sbssg238
(dp1689
I0
g0
(g71
g72
(dp1690
tp1691
Rp1692
(dp1693
g77
g7
sbssg224
(dp1694
I0
g0
(g71
g72
(dp1695
tp1696
Rp1697
(dp1698
g77
g7
sbssg249
(dp1699
I0
g0
(g71
g72
(dp1700
tp1701
Rp1702
(dp1703
g77
g7
sbssg121
(dp1704
I0
g0
(g71
g72
(dp1705
tp1706
Rp1707
(dp1708
g77
g7
sbssg334
(dp1709
I0
g0
(g71
g72
(dp1710
tp1711
Rp1712
(dp1713
g77
g7
sbssg212
(dp1714
I0
g0
(g71
g72
(dp1715
tp1716
Rp1717
(dp1718
g77
g7
sbssg218
(dp1719
I0
g0
(g71
g72
(dp1720
tp1721
Rp1722
(dp1723
g77
g7
sbsssg218
(dp1724
g238
(dp1725
I0
g0
(g71
g72
(dp1726
tp1727
Rp1728
(dp1729
g77
g7
sbssg104
(dp1730
I0
g0
(g71
g72
(dp1731
tp1732
Rp1733
(dp1734
g77
g7
sbssg121
(dp1735
I0
g0
(g71
g72
(dp1736
tp1737
Rp1738
(dp1739
g77
g7
sbssg478
(dp1740
I0
g0
(g71
g72
(dp1741
tp1742
Rp1743
(dp1744
g77
g7
sbssg212
(dp1745
I0
g0
(g71
g72
(dp1746
tp1747
Rp1748
(dp1749
g77
g7
sbssg218
(dp1750
I0
g0
(g71
g72
(dp1751
tp1752
Rp1753
(dp1754
g77
g7
sbsssg398
(dp1755
g238
(dp1756
I0
g0
(g71
g72
(dp1757
tp1758
Rp1759
(dp1760
g77
g7
sbssg398
(dp1761
I0
g0
(g71
g72
(dp1762
tp1763
Rp1764
(dp1765
g77
g7
sbssg255
(dp1766
I0
g0
(g71
g72
(dp1767
tp1768
Rp1769
(dp1770
g77
g7
sbssg617
(dp1771
I0
g0
(g71
g72
(dp1772
tp1773
Rp1774
(dp1775
g77
g7
sbssg121
(dp1776
I0
g0
(g71
g72
(dp1777
tp1778
Rp1779
(dp1780
g77
g7
sbsssg489
(dp1781
g145
(dp1782
I0
g0
(g71
g72
(dp1783
tp1784
Rp1785
(dp1786
g77
g7
sbssg445
(dp1787
I0
g0
(g71
g72
(dp1788
tp1789
Rp1790
(dp1791
g77
g7
sbssg489
(dp1792
I0
g0
(g71
g72
(dp1793
tp1794
Rp1795
(dp1796
g77
g7
sbssg462
(dp1797
I0
g0
(g71
g72
(dp1798
tp1799
Rp1800
(dp1801
g77
g7
sbssg478
(dp1802
I0
g0
(g71
g72
(dp1803
tp1804
Rp1805
(dp1806
g77
g7
sbsssg650
(dp1807
g532
(dp1808
I0
g0
(g71
g72
(dp1809
tp1810
Rp1811
(dp1812
g77
g7
sbssg650
(dp1813
I0
g0
(g71
g72
(dp1814
tp1815
Rp1816
(dp1817
g77
g7
sbssg676
(dp1818
I0
g0
(g71
g72
(dp1819
tp1820
Rp1821
(dp1822
g77
g7
sbssg682
(dp1823
I0
g0
(g71
g72
(dp1824
tp1825
Rp1826
(dp1827
g77
g7
sbssg638
(dp1828
I0
g0
(g71
g72
(dp1829
tp1830
Rp1831
(dp1832
g77
g7
sbssssS'default_layout'
p1833
S'dot'
p1834
sS'node'
p1835
(dp1836
g68
g0
(g71
g72
(dp1837
g43
g14
((lp1838
g33
ag34
atp1839
Rp1840
stp1841
Rp1842
(dp1843
g77
(dp1844
g43
g0
(ctulip.transys.mathset
PowerSet
p1845
g2
Ntp1846
Rp1847
(dp1848
S'math_set'
p1849
g30
sbssbsg78
g0
(g71
g72
(dp1850
g43
g14
((lp1851
g36
atp1852
Rp1853
stp1854
Rp1855
(dp1856
g77
g1844
sbsg127
g0
(g71
g72
(dp1857
g43
g14
((lp1858
tp1859
Rp1860
stp1861
Rp1862
(dp1863
g77
g1844
sbsg80
g0
(g71
g72
(dp1864
g43
g14
((lp1865
tp1866
Rp1867
stp1868
Rp1869
(dp1870
g77
g1844
sbsg224
g0
(g71
g72
(dp1871
g43
g14
((lp1872
g34
ag35
atp1873
Rp1874
stp1875
Rp1876
(dp1877
g77
g1844
sbsg272
g0
(g71
g72
(dp1878
g43
g14
((lp1879
g33
ag34
atp1880
Rp1881
stp1882
Rp1883
(dp1884
g77
g1844
sbsg191
g0
(g71
g72
(dp1885
g43
g14
((lp1886
g35
atp1887
Rp1888
stp1889
Rp1890
(dp1891
g77
g1844
sbsg238
g0
(g71
g72
(dp1892
g43
g14
((lp1893
g34
ag35
atp1894
Rp1895
stp1896
Rp1897
(dp1898
g77
g1844
sbsg92
g0
(g71
g72
(dp1899
g43
g14
((lp1900
g36
atp1901
Rp1902
stp1903
Rp1904
(dp1905
g77
g1844
sbsg445
g0
(g71
g72
(dp1906
g43
g14
((lp1907
g34
ag36
atp1908
Rp1909
stp1910
Rp1911
(dp1912
g77
g1844
sbsg139
g0
(g71
g72
(dp1913
g43
g14
((lp1914
g33
atp1915
Rp1916
stp1917
Rp1918
(dp1919
g77
g1844
sbsg145
g0
(g71
g72
(dp1920
g43
g14
((lp1921
g34
atp1922
Rp1923
stp1924
Rp1925
(dp1926
g77
g1844
sbsg121
g0
(g71
g72
(dp1927
g43
g14
((lp1928
g34
atp1929
Rp1930
stp1931
Rp1932
(dp1933
g77
g1844
sbsg638
g0
(g71
g72
(dp1934
g43
g14
((lp1935
g33
ag34
atp1936
Rp1937
stp1938
Rp1939
(dp1940
g77
g1844
sbsg351
g0
(g71
g72
(dp1941
g43
g14
((lp1942
g34
ag35
atp1943
Rp1944
stp1945
Rp1946
(dp1947
g77
g1844
sbsg478
g0
(g71
g72
(dp1948
g43
g14
((lp1949
g34
ag36
atp1950
Rp1951
stp1952
Rp1953
(dp1954
g77
g1844
sbsg280
g0
(g71
g72
(dp1955
g43
g14
((lp1956
g34
atp1957
Rp1958
stp1959
Rp1960
(dp1961
g77
g1844
sbsg676
g0
(g71
g72
(dp1962
g43
g14
((lp1963
g33
ag34
atp1964
Rp1965
stp1966
Rp1967
(dp1968
g77
g1844
sbsg575
g0
(g71
g72
(dp1969
g43
g14
((lp1970
g34
ag36
atp1971
Rp1972
stp1973
Rp1974
(dp1975
g77
g1844
sbsg682
g0
(g71
g72
(dp1976
g43
g14
((lp1977
g33
atp1978
Rp1979
stp1980
Rp1981
(dp1982
g77
g1844
sbsg226
g0
(g71
g72
(dp1983
g43
g14
((lp1984
g34
ag35
atp1985
Rp1986
stp1987
Rp1988
(dp1989
g77
g1844
sbsg232
g0
(g71
g72
(dp1990
g43
g14
((lp1991
g35
atp1992
Rp1993
stp1994
Rp1995
(dp1996
g77
g1844
sbsg942
g0
(g71
g72
(dp1997
g43
g14
((lp1998
g35
atp1999
Rp2000
stp2001
Rp2002
(dp2003
g77
g1844
sbsg86
g0
(g71
g72
(dp2004
g43
g14
((lp2005
g36
atp2006
Rp2007
stp2008
Rp2009
(dp2010
g77
g1844
sbsg532
g0
(g71
g72
(dp2011
g43
g14
((lp2012
g33
atp2013
Rp2014
stp2015
Rp2016
(dp2017
g77
g1844
sbsg538
g0
(g71
g72
(dp2018
g43
g14
((lp2019
tp2020
Rp2021
stp2022
Rp2023
(dp2024
g77
g1844
sbsg174
g0
(g71
g72
(dp2025
g43
g14
((lp2026
tp2027
Rp2028
stp2029
Rp2030
(dp2031
g77
g1844
sbsg98
g0
(g71
g72
(dp2032
g43
g14
((lp2033
tp2034
Rp2035
stp2036
Rp2037
(dp2038
g77
g1844
sbsg104
g0
(g71
g72
(dp2039
g43
g14
((lp2040
g36
atp2041
Rp2042
stp2043
Rp2044
(dp2045
g77
g1844
sbsg462
g0
(g71
g72
(dp2046
g43
g14
((lp2047
g34
ag36
atp2048
Rp2049
stp2050
Rp2051
(dp2052
g77
g1844
sbsg110
g0
(g71
g72
(dp2053
g43
g14
((lp2054
tp2055
Rp2056
stp2057
Rp2058
(dp2059
g77
g1844
sbsg377
g0
(g71
g72
(dp2060
g43
g14
((lp2061
g34
atp2062
Rp2063
stp2064
Rp2065
(dp2066
g77
g1844
sbsg334
g0
(g71
g72
(dp2067
g43
g14
((lp2068
g35
atp2069
Rp2070
stp2071
Rp2072
(dp2073
g77
g1844
sbsg151
g0
(g71
g72
(dp2074
g43
g14
((lp2075
g33
atp2076
Rp2077
stp2078
Rp2079
(dp2080
g77
g1844
sbsg157
g0
(g71
g72
(dp2081
g43
g14
((lp2082
g36
atp2083
Rp2084
stp2085
Rp2086
(dp2087
g77
g1844
sbsg249
g0
(g71
g72
(dp2088
g43
g14
((lp2089
g35
atp2090
Rp2091
stp2092
Rp2093
(dp2094
g77
g1844
sbsg302
g0
(g71
g72
(dp2095
g43
g14
((lp2096
g33
atp2097
Rp2098
stp2099
Rp2100
(dp2101
g77
g1844
sbsg163
g0
(g71
g72
(dp2102
g43
g14
((lp2103
g36
atp2104
Rp2105
stp2106
Rp2107
(dp2108
g77
g1844
sbsg274
g0
(g71
g72
(dp2109
g43
g14
((lp2110
g33
ag34
atp2111
Rp2112
stp2113
Rp2114
(dp2115
g77
g1844
sbsg291
g0
(g71
g72
(dp2116
g43
g14
((lp2117
g33
ag34
atp2118
Rp2119
stp2120
Rp2121
(dp2122
g77
g1844
sbsg564
g0
(g71
g72
(dp2123
g43
g14
((lp2124
g33
ag34
atp2125
Rp2126
stp2127
Rp2128
(dp2129
g77
g1844
sbsg255
g0
(g71
g72
(dp2130
g43
g14
((lp2131
g34
ag35
atp2132
Rp2133
stp2134
Rp2135
(dp2136
g77
g1844
sbsg617
g0
(g71
g72
(dp2137
g43
g14
((lp2138
g34
ag35
atp2139
Rp2140
stp2141
Rp2142
(dp2143
g77
g1844
sbsg261
g0
(g71
g72
(dp2144
g43
g14
((lp2145
g34
ag35
atp2146
Rp2147
stp2148
Rp2149
(dp2150
g77
g1844
sbsg954
g0
(g71
g72
(dp2151
g43
g14
((lp2152
g35
atp2153
Rp2154
stp2155
Rp2156
(dp2157
g77
g1844
sbsg936
g0
(g71
g72
(dp2158
g43
g14
((lp2159
g35
atp2160
Rp2161
stp2162
Rp2163
(dp2164
g77
g1844
sbsg212
g0
(g71
g72
(dp2165
g43
g14
((lp2166
g35
atp2167
Rp2168
stp2169
Rp2170
(dp2171
g77
g1844
sbsg218
g0
(g71
g72
(dp2172
g43
g14
((lp2173
tp2174
Rp2175
stp2176
Rp2177
(dp2178
g77
g1844
sbsg398
g0
(g71
g72
(dp2179
g43
g14
((lp2180
g34
ag35
atp2181
Rp2182
stp2183
Rp2184
(dp2185
g77
g1844
sbsg489
g0
(g71
g72
(dp2186
g43
g14
((lp2187
g34
ag36
atp2188
Rp2189
stp2190
Rp2191
(dp2192
g77
g1844
sbsg650
g0
(g71
g72
(dp2193
g43
g14
((lp2194
g33
atp2195
Rp2196
stp2197
Rp2198
(dp2199
g77
g1844
sbssS'_state_label_def'
p2200
g1844
sS'succ'
p2201
g67
sS'_node_label_types'
p2202
g1844
sS'_transition_dot_mask'
p2203
(dp2204
sS'atomic_propositions'
p2205
g30
sS'states'
p2206
g0
(ctulip.transys.labeled_graphs
States
p2207
g2
Ntp2208
Rp2209
(dp2210
g49
g4
sS'_current'
p2211
g0
(ctulip.transys.mathset
SubSet
p2212
g2
Ntp2213
Rp2214
(dp2215
S'_superset'
p2216
g2209
sg18
(lp2217
sg13
g14
((lp2218
tp2219
Rp2220
sbsS'_initial'
p2221
g0
(g2212
g2
Ntp2222
Rp2223
(dp2224
g2216
g2209
sg18
(lp2225
sg13
g14
((lp2226
tp2227
Rp2228
sbsbsS'edge'
p2229
g67
sS'pred'
p2230
(dp2231
g68
(dp2232
g272
g297
sg68
g70
ssg78
(dp2233
g78
g116
sg92
g405
sg86
g981
sg110
g1203
ssg127
(dp2234
g127
g129
sg92
g410
sg139
g496
sg151
g1291
sg157
g1327
sg163
g1430
sg110
g1218
sg174
g1059
ssg80
(dp2235
g80
g181
sg86
g961
sg191
g309
sg98
g1120
sg78
g81
sg212
g1679
ssg224
(dp2236
g226
g890
sg232
g921
sg238
g362
sg224
g244
sg249
g1388
sg261
g1616
sg212
g1694
ssg272
(dp2237
g274
g1471
sg272
g286
sg291
g1487
sg676
g802
sg682
g859
sg302
g1409
ssg191
(dp2238
g80
g192
sg191
g314
sg98
g1110
sg249
g1378
sg334
g1265
sg212
g1684
ssg238
(dp2239
g238
g357
sg224
g239
sg249
g1383
sg121
g592
sg255
g1559
sg212
g1689
sg218
g1725
sg398
g1756
ssg92
(dp2240
g163
g1435
sg127
g134
sg92
g415
sg104
g1136
sg110
g1208
sg78
g93
ssg445
(dp2241
g174
g1079
sg445
g452
sg104
g1141
sg145
g549
sg157
g1337
sg478
g710
sg489
g1787
ssg139
(dp2242
g127
g140
sg174
g1084
sg139
g506
sg151
g1311
sg110
g1213
ssg145
(dp2243
g127
g146
sg489
g1782
sg532
g1012
sg280
g756
sg92
g425
sg445
g473
sg139
g511
sg145
g554
sg151
g1316
sg638
g656
sg174
g1089
sg538
g1043
sg157
g1347
sg575
g843
sg564
g1533
ssg121
(dp2244
g80
g207
sg191
g329
sg238
g372
sg92
g440
sg445
g468
sg104
g1151
sg121
g602
sg377
g1239
sg78
g122
sg351
g699
sg478
g720
sg617
g1590
sg212
g1704
sg218
g1735
sg398
g1776
ssg638
(dp2245
g532
g1017
sg650
g1828
sg638
g661
sg291
g1497
sg564
g1538
sg676
g797
sg682
g854
ssg351
(dp2246
g351
g689
sg238
g352
sg617
g1585
sg121
g587
sg377
g1229
ssg478
(dp2247
g157
g1362
sg445
g479
sg104
g1166
sg462
g1182
sg121
g612
sg377
g1249
sg478
g730
sg218
g1740
sg489
g1802
ssg280
(dp2248
g274
g1461
sg280
g746
sg575
g828
sg145
g570
sg638
g645
sg272
g281
sg291
g1492
sg564
g1553
sg676
g787
ssg676
(dp2249
g650
g1818
sg638
g677
sg274
g1476
sg291
g1517
sg676
g812
sg682
g864
sg302
g1414
ssg575
(dp2250
g280
g751
sg575
g833
sg145
g576
sg462
g1177
ssg682
(dp2251
g650
g1823
sg302
g1419
sg676
g817
sg682
g869
sg638
g683
ssg226
(dp2252
g226
g880
sg232
g911
sg936
g1663
sg224
g227
sg249
g1368
sg261
g1621
sg954
g1642
ssg232
(dp2253
g226
g885
sg232
g916
sg942
g944
sg936
g1668
sg224
g233
sg249
g1373
sg334
g1260
sg954
g1647
ssg942
(dp2254
g942
g949
sg954
g1652
ssg86
(dp2255
g78
g87
sg80
g186
sg86
g966
sg98
g1125
ssg532
(dp2256
g532
g992
sg538
g1028
sg174
g1064
sg650
g1808
sg145
g533
sg151
g1296
sg638
g640
sg564
g1523
ssg538
(dp2257
g532
g997
sg538
g1033
sg174
g1069
sg145
g539
sg151
g1301
sg564
g1528
ssg174
(dp2258
g127
g175
sg532
g1002
sg538
g1038
sg174
g1074
sg445
g447
sg139
g501
sg145
g544
sg151
g1306
sg157
g1332
sg163
g1455
ssg98
(dp2259
g80
g197
sg86
g971
sg191
g319
sg98
g1130
sg78
g99
sg334
g1270
ssg104
(dp2260
g163
g1440
sg80
g202
sg86
g976
sg92
g420
sg445
g457
sg104
g1146
sg121
g597
sg157
g1342
sg78
g105
sg218
g1730
ssg462
(dp2261
g280
g761
sg575
g838
sg445
g463
sg462
g1187
sg145
g527
sg478
g715
sg377
g1234
sg489
g1797
ssg110
(dp2262
g78
g111
sg92
g430
sg139
g516
sg127
g169
sg110
g1223
ssg377
(dp2263
g351
g704
sg238
g378
sg462
g1192
sg121
g607
sg377
g1244
sg478
g725
sg617
g1595
ssg334
(dp2264
g232
g931
sg191
g335
sg98
g1115
sg249
g1398
sg334
g1280
sg212
g1709
ssg151
(dp2265
g538
g1048
sg127
g152
sg139
g521
sg174
g1094
sg151
g1321
ssg157
(dp2266
g127
g158
sg174
g1099
sg445
g484
sg104
g1156
sg145
g559
sg157
g1352
sg163
g1445
sg478
g735
ssg249
(dp2267
g226
g895
sg232
g926
sg191
g324
sg238
g367
sg224
g250
sg249
g1393
sg334
g1275
sg212
g1699
ssg302
(dp2268
g272
g303
sg676
g822
sg682
g874
sg302
g1424
ssg163
(dp2269
g127
g164
sg92
g435
sg104
g1161
sg157
g1357
sg163
g1450
sg174
g1104
ssg274
(dp2270
g280
g766
sg291
g1502
sg274
g1481
sg676
g782
sg272
g275
ssg291
(dp2271
g274
g1466
sg280
g771
sg638
g666
sg272
g292
sg291
g1507
sg564
g1543
sg676
g807
ssg564
(dp2272
g532
g1022
sg280
g776
sg145
g565
sg638
g671
sg291
g1512
sg564
g1548
sg538
g1053
ssg255
(dp2273
g226
g900
sg238
g383
sg224
g256
sg255
g1569
sg617
g1600
sg261
g1626
sg398
g1766
ssg617
(dp2274
g351
g694
sg121
g618
sg377
g1254
sg255
g1574
sg617
g1605
sg398
g1771
ssg261
(dp2275
g255
g1579
sg226
g905
sg224
g262
sg261
g1631
ssg954
(dp2276
g942
g955
sg954
g1657
ssg936
(dp2277
g936
g1673
sg232
g937
sg954
g1637
ssg212
(dp2278
g80
g213
sg191
g340
sg238
g388
sg224
g267
sg249
g1403
sg121
g623
sg334
g1285
sg212
g1714
sg218
g1745
ssg218
(dp2279
g80
g219
sg86
g986
sg191
g345
sg238
g393
sg104
g1171
sg121
g628
sg212
g1719
sg218
g1750
ssg398
(dp2280
g238
g399
sg398
g1761
sg255
g1564
sg617
g1610
sg121
g633
ssg489
(dp2281
g478
g740
sg445
g490
sg489
g1792
sg145
g581
sg462
g1197
ssg650
(dp2282
g532
g1007
sg650
g1813
sg676
g792
sg682
g849
sg638
g651
sssS'dot_node_shape'
p2283
(dp2284
S'normal'
p2285
S'box'
p2286
ssS'default_export_fname'
p2287
S'ofts'
p2288
sb.