ccopy_reg
_reconstructor
p0
(ctulip.transys.machines
MealyMachine
p1
c__builtin__
object
p2
Ntp3
Rp4
(dp5
S'_transition_label_def'
p6
(dp7
S'loc'
p8
c__builtin__
set
p9
((lp10
I0
aI1
aI2
aI3
aI4
aI5
aI6
aI7
aI8
aI9
aI10
aI11
aI12
aI13
aI14
aI15
aI16
aI17
aI18
aI19
aI20
aI21
aI22
aI23
aI24
aI25
aI26
aI27
aI28
aI29
aI30
aI31
aI32
aI33
aI34
aI35
aI36
aI37
aI38
aI39
aI40
aI41
aI42
aI43
aI44
aI45
aI46
aI47
aI48
aI49
aI50
atp11
Rp12
sS'noHXfreeze'
p13
g9
((lp14
I0
aI1
atp15
Rp16
sS'level'
p17
g9
((lp18
I0
aI1
aI2
atp19
Rp20
sS'tempCold'
p21
g9
((lp22
I0
aI1
atp23
Rp24
sS'tempGood'
p25
g9
((lp26
I0
aI1
atp27
Rp28
sS'trackfl'
p29
g9
((lp30
I0
aI1
aI2
aI3
atp31
Rp32
sS'tempHot'
p33
g9
((lp34
I0
aI1
atp35
Rp36
ssS'inputs'
p37
ccollections
OrderedDict
p38
((lp39
(lp40
g17
ag20
aatp41
Rp42
sS'state_vars'
p43
g38
((lp44
(lp45
g8
ag12
aatp46
Rp47
sS'transitions'
p48
g0
(ctulip.transys.labeled_graphs
Transitions
p49
g2
Ntp50
Rp51
(dp52
S'graph'
p53
g4
sS'_deterministic'
p54
I00
sbsS'node'
p55
(dp56
I0
g0
(ctulip.transys.mathset
TypedDict
p57
c__builtin__
dict
p58
(dp59
S'loc'
p60
I6
stp61
Rp62
(dp63
S'allowed_values'
p64
(dp65
g8
g12
ssbsI1
g0
(g57
g58
(dp66
S'loc'
p67
I4
stp68
Rp69
(dp70
g64
g65
sbsI2
g0
(g57
g58
(dp71
S'loc'
p72
I4
stp73
Rp74
(dp75
g64
g65
sbsI3
g0
(g57
g58
(dp76
S'loc'
p77
I45
stp78
Rp79
(dp80
g64
g65
sbsI4
g0
(g57
g58
(dp81
S'loc'
p82
I45
stp83
Rp84
(dp85
g64
g65
sbsI5
g0
(g57
g58
(dp86
S'loc'
p87
I45
stp88
Rp89
(dp90
g64
g65
sbsI6
g0
(g57
g58
(dp91
S'loc'
p92
I45
stp93
Rp94
(dp95
g64
g65
sbsI7
g0
(g57
g58
(dp96
S'loc'
p97
I13
stp98
Rp99
(dp100
g64
g65
sbsI8
g0
(g57
g58
(dp101
S'loc'
p102
I13
stp103
Rp104
(dp105
g64
g65
sbsI9
g0
(g57
g58
(dp106
S'loc'
p107
I13
stp108
Rp109
(dp110
g64
g65
sbsI10
g0
(g57
g58
(dp111
S'loc'
p112
I21
stp113
Rp114
(dp115
g64
g65
sbsI11
g0
(g57
g58
(dp116
S'loc'
p117
I13
stp118
Rp119
(dp120
g64
g65
sbsI12
g0
(g57
g58
(dp121
S'loc'
p122
I11
stp123
Rp124
(dp125
g64
g65
sbsI13
g0
(g57
g58
(dp126
S'loc'
p127
I16
stp128
Rp129
(dp130
g64
g65
sbsI14
g0
(g57
g58
(dp131
S'loc'
p132
I14
stp133
Rp134
(dp135
g64
g65
sbsI15
g0
(g57
g58
(dp136
S'loc'
p137
I14
stp138
Rp139
(dp140
g64
g65
sbsI16
g0
(g57
g58
(dp141
S'loc'
p142
I16
stp143
Rp144
(dp145
g64
g65
sbsI17
g0
(g57
g58
(dp146
S'loc'
p147
I11
stp148
Rp149
(dp150
g64
g65
sbsI18
g0
(g57
g58
(dp151
S'loc'
p152
I11
stp153
Rp154
(dp155
g64
g65
sbsI19
g0
(g57
g58
(dp156
S'loc'
p157
I12
stp158
Rp159
(dp160
g64
g65
sbsI20
g0
(g57
g58
(dp161
S'loc'
p162
I11
stp163
Rp164
(dp165
g64
g65
sbsI21
g0
(g57
g58
(dp166
S'loc'
p167
I11
stp168
Rp169
(dp170
g64
g65
sbsI22
g0
(g57
g58
(dp171
S'loc'
p172
I12
stp173
Rp174
(dp175
g64
g65
sbsI23
g0
(g57
g58
(dp176
S'loc'
p177
I12
stp178
Rp179
(dp180
g64
g65
sbsI24
g0
(g57
g58
(dp181
S'loc'
p182
I4
stp183
Rp184
(dp185
g64
g65
sbsI25
g0
(g57
g58
(dp186
S'loc'
p187
I4
stp188
Rp189
(dp190
g64
g65
sbsI26
g0
(g57
g58
(dp191
S'loc'
p192
I4
stp193
Rp194
(dp195
g64
g65
sbsI27
g0
(g57
g58
(dp196
S'loc'
p197
I4
stp198
Rp199
(dp200
g64
g65
sbsI28
g0
(g57
g58
(dp201
S'loc'
p202
I6
stp203
Rp204
(dp205
g64
g65
sbsI29
g0
(g57
g58
(dp206
S'loc'
p207
I6
stp208
Rp209
(dp210
g64
g65
sbsI30
g0
(g57
g58
(dp211
S'loc'
p212
I33
stp213
Rp214
(dp215
g64
g65
sbsI31
g0
(g57
g58
(dp216
S'loc'
p217
I35
stp218
Rp219
(dp220
g64
g65
sbsI32
g0
(g57
g58
(dp221
S'loc'
p222
I33
stp223
Rp224
(dp225
g64
g65
sbsI33
g0
(g57
g58
(dp226
S'loc'
p227
I33
stp228
Rp229
(dp230
g64
g65
sbsI34
g0
(g57
g58
(dp231
S'loc'
p232
I37
stp233
Rp234
(dp235
g64
g65
sbsI35
g0
(g57
g58
(dp236
S'loc'
p237
I0
stp238
Rp239
(dp240
g64
g65
sbsI36
g0
(g57
g58
(dp241
S'loc'
p242
I0
stp243
Rp244
(dp245
g64
g65
sbsI37
g0
(g57
g58
(dp246
S'loc'
p247
I0
stp248
Rp249
(dp250
g64
g65
sbsI38
g0
(g57
g58
(dp251
S'loc'
p252
I0
stp253
Rp254
(dp255
g64
g65
sbsI39
g0
(g57
g58
(dp256
S'loc'
p257
I0
stp258
Rp259
(dp260
g64
g65
sbsI40
g0
(g57
g58
(dp261
S'loc'
p262
I0
stp263
Rp264
(dp265
g64
g65
sbsI41
g0
(g57
g58
(dp266
S'loc'
p267
I21
stp268
Rp269
(dp270
g64
g65
sbsI42
g0
(g57
g58
(dp271
S'loc'
p272
I5
stp273
Rp274
(dp275
g64
g65
sbsI43
g0
(g57
g58
(dp276
S'loc'
p277
I5
stp278
Rp279
(dp280
g64
g65
sbsI44
g0
(g57
g58
(dp281
S'loc'
p282
I5
stp283
Rp284
(dp285
g64
g65
sbsI45
g0
(g57
g58
(dp286
S'loc'
p287
I1
stp288
Rp289
(dp290
g64
g65
sbsI46
g0
(g57
g58
(dp291
S'loc'
p292
I31
stp293
Rp294
(dp295
g64
g65
sbsI47
g0
(g57
g58
(dp296
S'loc'
p297
I1
stp298
Rp299
(dp300
g64
g65
sbsI48
g0
(g57
g58
(dp301
S'loc'
p302
I1
stp303
Rp304
(dp305
g64
g65
sbsS'Sinit'
p306
g0
(g57
g58
(dp307
tp308
Rp309
(dp310
g64
g65
sbssS'_state_label_def'
p311
g65
sS'outputs'
p312
g38
((lp313
(lp314
g21
ag24
aa(lp315
g13
ag16
aa(lp316
g8
ag12
aa(lp317
g29
ag32
aa(lp318
g33
ag36
aa(lp319
g25
ag28
aatp320
Rp321
sS'pred'
p322
(dp323
I0
(dp324
I32
(dp325
I0
g0
(g57
g58
(dp326
g60
I6
sS'noHXfreeze'
p327
I1
sS'tempCold'
p328
I0
sS'level'
p329
I0
sS'trackfl'
p330
I3
sS'tempHot'
p331
I0
sS'tempGood'
p332
I0
stp333
Rp334
(dp335
g64
g7
sbssI30
(dp336
I0
g0
(g57
g58
(dp337
g60
I6
sg327
I1
sg328
I0
sg329
I0
sg330
I3
sg331
I0
sg332
I0
stp338
Rp339
(dp340
g64
g7
sbsssI1
(dp341
I27
(dp342
I0
g0
(g57
g58
(dp343
g67
I4
sS'noHXfreeze'
p344
I1
sS'tempCold'
p345
I1
sS'level'
p346
I2
sS'trackfl'
p347
I2
sS'tempHot'
p348
I0
sS'tempGood'
p349
I0
stp350
Rp351
(dp352
g64
g7
sbsssI2
(dp353
I24
(dp354
I0
g0
(g57
g58
(dp355
g72
I4
sS'noHXfreeze'
p356
I1
sS'tempCold'
p357
I1
sS'level'
p358
I2
sS'trackfl'
p359
I2
sS'tempHot'
p360
I0
sS'tempGood'
p361
I0
stp362
Rp363
(dp364
g64
g7
sbssI25
(dp365
I0
g0
(g57
g58
(dp366
g72
I4
sg356
I1
sg357
I1
sg358
I2
sg359
I2
sg360
I0
sg361
I0
stp367
Rp368
(dp369
g64
g7
sbsssI3
(dp370
I4
(dp371
I0
g0
(g57
g58
(dp372
g77
I45
sS'noHXfreeze'
p373
I1
sS'tempCold'
p374
I1
sS'level'
p375
I2
sS'trackfl'
p376
I2
sS'tempHot'
p377
I0
sS'tempGood'
p378
I0
stp379
Rp380
(dp381
g64
g7
sbsssI4
(dp382
I5
(dp383
I0
g0
(g57
g58
(dp384
g82
I45
sS'noHXfreeze'
p385
I1
sS'tempCold'
p386
I1
sS'level'
p387
I2
sS'trackfl'
p388
I2
sS'tempHot'
p389
I0
sS'tempGood'
p390
I0
stp391
Rp392
(dp393
g64
g7
sbsssI5
(dp394
I6
(dp395
I0
g0
(g57
g58
(dp396
g87
I45
sS'noHXfreeze'
p397
I1
sS'tempCold'
p398
I1
sS'level'
p399
I2
sS'trackfl'
p400
I2
sS'tempHot'
p401
I0
sS'tempGood'
p402
I0
stp403
Rp404
(dp405
g64
g7
sbsssI6
(dp406
I19
(dp407
I0
g0
(g57
g58
(dp408
g92
I45
sS'noHXfreeze'
p409
I1
sS'tempCold'
p410
I1
sS'level'
p411
I2
sS'trackfl'
p412
I2
sS'tempHot'
p413
I0
sS'tempGood'
p414
I0
stp415
Rp416
(dp417
g64
g7
sbssI3
(dp418
I0
g0
(g57
g58
(dp419
g92
I45
sg409
I1
sg410
I1
sg411
I2
sg412
I2
sg413
I0
sg414
I0
stp420
Rp421
(dp422
g64
g7
sbsssI7
(dp423
I8
(dp424
I0
g0
(g57
g58
(dp425
g97
I13
sS'noHXfreeze'
p426
I1
sS'tempCold'
p427
I0
sS'level'
p428
I0
sS'trackfl'
p429
I0
sS'tempHot'
p430
I1
sS'tempGood'
p431
I0
stp432
Rp433
(dp434
g64
g7
sbsssI8
(dp435
I9
(dp436
I0
g0
(g57
g58
(dp437
g102
I13
sS'noHXfreeze'
p438
I1
sS'tempCold'
p439
I0
sS'level'
p440
I0
sS'trackfl'
p441
I0
sS'tempHot'
p442
I1
sS'tempGood'
p443
I0
stp444
Rp445
(dp446
g64
g7
sbsssI9
(dp447
I11
(dp448
I0
g0
(g57
g58
(dp449
g107
I13
sS'noHXfreeze'
p450
I1
sS'tempCold'
p451
I0
sS'level'
p452
I0
sS'trackfl'
p453
I0
sS'tempHot'
p454
I1
sS'tempGood'
p455
I0
stp456
Rp457
(dp458
g64
g7
sbsssI10
(dp459
I44
(dp460
I0
g0
(g57
g58
(dp461
g112
I21
sS'noHXfreeze'
p462
I1
sS'tempCold'
p463
I0
sS'level'
p464
I2
sS'trackfl'
p465
I1
sS'tempHot'
p466
I0
sS'tempGood'
p467
I1
stp468
Rp469
(dp470
g64
g7
sbsssI11
(dp471
I42
(dp472
I0
g0
(g57
g58
(dp473
g117
I13
sS'noHXfreeze'
p474
I1
sS'tempCold'
p475
I0
sS'level'
p476
I0
sS'trackfl'
p477
I0
sS'tempHot'
p478
I1
sS'tempGood'
p479
I0
stp480
Rp481
(dp482
g64
g7
sbssI15
(dp483
I0
g0
(g57
g58
(dp484
g117
I13
sg474
I1
sg475
I0
sg476
I0
sg477
I0
sg478
I1
sg479
I0
stp485
Rp486
(dp487
g64
g7
sbssI7
(dp488
I0
g0
(g57
g58
(dp489
g117
I13
sg474
I1
sg475
I0
sg476
I0
sg477
I0
sg478
I1
sg479
I0
stp490
Rp491
(dp492
g64
g7
sbsssI12
(dp493
I13
(dp494
I0
g0
(g57
g58
(dp495
g122
I11
sS'noHXfreeze'
p496
I1
sS'tempCold'
p497
I0
sS'level'
p498
I2
sS'trackfl'
p499
I1
sS'tempHot'
p500
I0
sS'tempGood'
p501
I1
stp502
Rp503
(dp504
g64
g7
sbsssI13
(dp505
I14
(dp506
I0
g0
(g57
g58
(dp507
g127
I16
sS'noHXfreeze'
p508
I1
sS'tempCold'
p509
I0
sS'level'
p510
I2
sS'trackfl'
p511
I1
sS'tempHot'
p512
I0
sS'tempGood'
p513
I1
stp514
Rp515
(dp516
g64
g7
sbsssI14
(dp517
I16
(dp518
I0
g0
(g57
g58
(dp519
g132
I14
sS'noHXfreeze'
p520
I1
sS'tempCold'
p521
I0
sS'level'
p522
I2
sS'trackfl'
p523
I3
sS'tempHot'
p524
I0
sS'tempGood'
p525
I0
stp526
Rp527
(dp528
g64
g7
sbsssI15
(dp529
I16
(dp530
I0
g0
(g57
g58
(dp531
g137
I14
sS'noHXfreeze'
p532
I1
sS'tempCold'
p533
I0
sS'level'
p534
I0
sS'trackfl'
p535
I3
sS'tempHot'
p536
I0
sS'tempGood'
p537
I0
stp538
Rp539
(dp540
g64
g7
sbssI13
(dp541
I0
g0
(g57
g58
(dp542
g137
I14
sg532
I1
sg533
I0
sg534
I0
sg535
I3
sg536
I0
sg537
I0
stp543
Rp544
(dp545
g64
g7
sbsssI16
(dp546
I22
(dp547
I0
g0
(g57
g58
(dp548
g142
I16
sS'noHXfreeze'
p549
I1
sS'tempCold'
p550
I0
sS'level'
p551
I0
sS'trackfl'
p552
I1
sS'tempHot'
p553
I0
sS'tempGood'
p554
I1
stp555
Rp556
(dp557
g64
g7
sbsssI17
(dp558
g306
(dp559
I0
g0
(g57
g58
(dp560
g147
I11
sS'noHXfreeze'
p561
I1
sS'tempCold'
p562
I0
sS'level'
p563
I1
sS'trackfl'
p564
I1
sS'tempHot'
p565
I0
sS'tempGood'
p566
I1
stp567
Rp568
(dp569
g64
g7
sbssI18
(dp570
I0
g0
(g57
g58
(dp571
g147
I11
sg561
I1
sg562
I0
sg563
I1
sg564
I1
sg565
I0
sg566
I1
stp572
Rp573
(dp574
g64
g7
sbssI12
(dp575
I0
g0
(g57
g58
(dp576
g147
I11
sg561
I1
sg562
I0
sg563
I1
sg564
I1
sg565
I0
sg566
I1
stp577
Rp578
(dp579
g64
g7
sbssI13
(dp580
I0
g0
(g57
g58
(dp581
g147
I11
sg561
I1
sg562
I0
sg563
I1
sg564
I1
sg565
I0
sg566
I1
stp582
Rp583
(dp584
g64
g7
sbsssI18
(dp585
g306
(dp586
I0
g0
(g57
g58
(dp587
g152
I11
sS'noHXfreeze'
p588
I1
sS'tempCold'
p589
I0
sS'level'
p590
I1
sS'trackfl'
p591
I1
sS'tempHot'
p592
I0
sS'tempGood'
p593
I1
stp594
Rp595
(dp596
g64
g7
sbssI20
(dp597
I0
g0
(g57
g58
(dp598
g152
I11
sg588
I1
sg589
I0
sg590
I1
sg591
I1
sg592
I0
sg593
I1
stp599
Rp600
(dp601
g64
g7
sbsssI19
(dp602
I12
(dp603
I0
g0
(g57
g58
(dp604
g157
I12
sS'noHXfreeze'
p605
I1
sS'tempCold'
p606
I0
sS'level'
p607
I2
sS'trackfl'
p608
I3
sS'tempHot'
p609
I0
sS'tempGood'
p610
I0
stp611
Rp612
(dp613
g64
g7
sbssI17
(dp614
I0
g0
(g57
g58
(dp615
g157
I12
sg605
I1
sg606
I0
sg607
I2
sg608
I3
sg609
I0
sg610
I0
stp616
Rp617
(dp618
g64
g7
sbssI18
(dp619
I0
g0
(g57
g58
(dp620
g157
I12
sg605
I1
sg606
I0
sg607
I2
sg608
I3
sg609
I0
sg610
I0
stp621
Rp622
(dp623
g64
g7
sbssI20
(dp624
I0
g0
(g57
g58
(dp625
g157
I12
sg605
I1
sg606
I0
sg607
I2
sg608
I3
sg609
I0
sg610
I0
stp626
Rp627
(dp628
g64
g7
sbssI21
(dp629
I0
g0
(g57
g58
(dp630
g157
I12
sg605
I1
sg606
I0
sg607
I2
sg608
I3
sg609
I0
sg610
I0
stp631
Rp632
(dp633
g64
g7
sbssI22
(dp634
I0
g0
(g57
g58
(dp635
g157
I12
sg605
I1
sg606
I0
sg607
I2
sg608
I3
sg609
I0
sg610
I0
stp636
Rp637
(dp638
g64
g7
sbssI23
(dp639
I0
g0
(g57
g58
(dp640
g157
I12
sg605
I1
sg606
I0
sg607
I2
sg608
I3
sg609
I0
sg610
I0
stp641
Rp642
(dp643
g64
g7
sbsssI20
(dp644
I16
(dp645
I0
g0
(g57
g58
(dp646
g162
I11
sS'noHXfreeze'
p647
I1
sS'tempCold'
p648
I0
sS'level'
p649
I1
sS'trackfl'
p650
I1
sS'tempHot'
p651
I0
sS'tempGood'
p652
I1
stp653
Rp654
(dp655
g64
g7
sbssg306
(dp656
I0
g0
(g57
g58
(dp657
g162
I11
sg647
I1
sg648
I0
sg649
I1
sg650
I1
sg651
I0
sg652
I1
stp658
Rp659
(dp660
g64
g7
sbssI21
(dp661
I0
g0
(g57
g58
(dp662
g162
I11
sg647
I1
sg648
I0
sg649
I1
sg650
I1
sg651
I0
sg652
I1
stp663
Rp664
(dp665
g64
g7
sbsssI21
(dp666
g306
(dp667
I0
g0
(g57
g58
(dp668
g167
I11
sS'noHXfreeze'
p669
I1
sS'tempCold'
p670
I0
sS'level'
p671
I1
sS'trackfl'
p672
I1
sS'tempHot'
p673
I0
sS'tempGood'
p674
I1
stp675
Rp676
(dp677
g64
g7
sbssI17
(dp678
I0
g0
(g57
g58
(dp679
g167
I11
sg669
I1
sg670
I0
sg671
I1
sg672
I1
sg673
I0
sg674
I1
stp680
Rp681
(dp682
g64
g7
sbssI23
(dp683
I0
g0
(g57
g58
(dp684
g167
I11
sg669
I1
sg670
I0
sg671
I1
sg672
I1
sg673
I0
sg674
I1
stp685
Rp686
(dp687
g64
g7
sbsssI22
(dp688
I3
(dp689
I0
g0
(g57
g58
(dp690
g172
I12
sS'noHXfreeze'
p691
I1
sS'tempCold'
p692
I0
sS'level'
p693
I0
sS'trackfl'
p694
I3
sS'tempHot'
p695
I0
sS'tempGood'
p696
I0
stp697
Rp698
(dp699
g64
g7
sbssI4
(dp700
I0
g0
(g57
g58
(dp701
g172
I12
sg691
I1
sg692
I0
sg693
I0
sg694
I3
sg695
I0
sg696
I0
stp702
Rp703
(dp704
g64
g7
sbssI5
(dp705
I0
g0
(g57
g58
(dp706
g172
I12
sg691
I1
sg692
I0
sg693
I0
sg694
I3
sg695
I0
sg696
I0
stp707
Rp708
(dp709
g64
g7
sbssI6
(dp710
I0
g0
(g57
g58
(dp711
g172
I12
sg691
I1
sg692
I0
sg693
I0
sg694
I3
sg695
I0
sg696
I0
stp712
Rp713
(dp714
g64
g7
sbssI12
(dp715
I0
g0
(g57
g58
(dp716
g172
I12
sg691
I1
sg692
I0
sg693
I0
sg694
I3
sg695
I0
sg696
I0
stp717
Rp718
(dp719
g64
g7
sbssI17
(dp720
I0
g0
(g57
g58
(dp721
g172
I12
sg691
I1
sg692
I0
sg693
I0
sg694
I3
sg695
I0
sg696
I0
stp722
Rp723
(dp724
g64
g7
sbssI18
(dp725
I0
g0
(g57
g58
(dp726
g172
I12
sg691
I1
sg692
I0
sg693
I0
sg694
I3
sg695
I0
sg696
I0
stp727
Rp728
(dp729
g64
g7
sbssI19
(dp730
I0
g0
(g57
g58
(dp731
g172
I12
sg691
I1
sg692
I0
sg693
I0
sg694
I3
sg695
I0
sg696
I0
stp732
Rp733
(dp734
g64
g7
sbssI20
(dp735
I0
g0
(g57
g58
(dp736
g172
I12
sg691
I1
sg692
I0
sg693
I0
sg694
I3
sg695
I0
sg696
I0
stp737
Rp738
(dp739
g64
g7
sbssI21
(dp740
I0
g0
(g57
g58
(dp741
g172
I12
sg691
I1
sg692
I0
sg693
I0
sg694
I3
sg695
I0
sg696
I0
stp742
Rp743
(dp744
g64
g7
sbssI23
(dp745
I0
g0
(g57
g58
(dp746
g172
I12
sg691
I1
sg692
I0
sg693
I0
sg694
I3
sg695
I0
sg696
I0
stp747
Rp748
(dp749
g64
g7
sbssI25
(dp750
I0
g0
(g57
g58
(dp751
g172
I12
sg691
I1
sg692
I0
sg693
I0
sg694
I3
sg695
I0
sg696
I0
stp752
Rp753
(dp754
g64
g7
sbsssI23
(dp755
I3
(dp756
I0
g0
(g57
g58
(dp757
g177
I12
sS'noHXfreeze'
p758
I1
sS'tempCold'
p759
I0
sS'level'
p760
I1
sS'trackfl'
p761
I3
sS'tempHot'
p762
I0
sS'tempGood'
p763
I0
stp764
Rp765
(dp766
g64
g7
sbssI4
(dp767
I0
g0
(g57
g58
(dp768
g177
I12
sg758
I1
sg759
I0
sg760
I1
sg761
I3
sg762
I0
sg763
I0
stp769
Rp770
(dp771
g64
g7
sbssI5
(dp772
I0
g0
(g57
g58
(dp773
g177
I12
sg758
I1
sg759
I0
sg760
I1
sg761
I3
sg762
I0
sg763
I0
stp774
Rp775
(dp776
g64
g7
sbssI6
(dp777
I0
g0
(g57
g58
(dp778
g177
I12
sg758
I1
sg759
I0
sg760
I1
sg761
I3
sg762
I0
sg763
I0
stp779
Rp780
(dp781
g64
g7
sbssI19
(dp782
I0
g0
(g57
g58
(dp783
g177
I12
sg758
I1
sg759
I0
sg760
I1
sg761
I3
sg762
I0
sg763
I0
stp784
Rp785
(dp786
g64
g7
sbssI22
(dp787
I0
g0
(g57
g58
(dp788
g177
I12
sg758
I1
sg759
I0
sg760
I1
sg761
I3
sg762
I0
sg763
I0
stp789
Rp790
(dp791
g64
g7
sbssI26
(dp792
I0
g0
(g57
g58
(dp793
g177
I12
sg758
I1
sg759
I0
sg760
I1
sg761
I3
sg762
I0
sg763
I0
stp794
Rp795
(dp796
g64
g7
sbsssI24
(dp797
I1
(dp798
I0
g0
(g57
g58
(dp799
g182
I4
sS'noHXfreeze'
p800
I1
sS'tempCold'
p801
I1
sS'level'
p802
I2
sS'trackfl'
p803
I2
sS'tempHot'
p804
I0
sS'tempGood'
p805
I0
stp806
Rp807
(dp808
g64
g7
sbssI26
(dp809
I0
g0
(g57
g58
(dp810
g182
I4
sg800
I1
sg801
I1
sg802
I2
sg803
I2
sg804
I0
sg805
I0
stp811
Rp812
(dp813
g64
g7
sbsssI25
(dp814
I1
(dp815
I0
g0
(g57
g58
(dp816
g187
I4
sS'noHXfreeze'
p817
I1
sS'tempCold'
p818
I1
sS'level'
p819
I0
sS'trackfl'
p820
I2
sS'tempHot'
p821
I0
sS'tempGood'
p822
I0
stp823
Rp824
(dp825
g64
g7
sbssI2
(dp826
I0
g0
(g57
g58
(dp827
g187
I4
sg817
I1
sg818
I1
sg819
I0
sg820
I2
sg821
I0
sg822
I0
stp828
Rp829
(dp830
g64
g7
sbssI24
(dp831
I0
g0
(g57
g58
(dp832
g187
I4
sg817
I1
sg818
I1
sg819
I0
sg820
I2
sg821
I0
sg822
I0
stp833
Rp834
(dp835
g64
g7
sbssI26
(dp836
I0
g0
(g57
g58
(dp837
g187
I4
sg817
I1
sg818
I1
sg819
I0
sg820
I2
sg821
I0
sg822
I0
stp838
Rp839
(dp840
g64
g7
sbssI27
(dp841
I0
g0
(g57
g58
(dp842
g187
I4
sg817
I1
sg818
I1
sg819
I0
sg820
I2
sg821
I0
sg822
I0
stp843
Rp844
(dp845
g64
g7
sbssI31
(dp846
I0
g0
(g57
g58
(dp847
g187
I4
sg817
I1
sg818
I1
sg819
I0
sg820
I2
sg821
I0
sg822
I0
stp848
Rp849
(dp850
g64
g7
sbsssI26
(dp851
I1
(dp852
I0
g0
(g57
g58
(dp853
g192
I4
sS'noHXfreeze'
p854
I1
sS'tempCold'
p855
I1
sS'level'
p856
I1
sS'trackfl'
p857
I2
sS'tempHot'
p858
I0
sS'tempGood'
p859
I0
stp860
Rp861
(dp862
g64
g7
sbssI2
(dp863
I0
g0
(g57
g58
(dp864
g192
I4
sg854
I1
sg855
I1
sg856
I1
sg857
I2
sg858
I0
sg859
I0
stp865
Rp866
(dp867
g64
g7
sbssI24
(dp868
I0
g0
(g57
g58
(dp869
g192
I4
sg854
I1
sg855
I1
sg856
I1
sg857
I2
sg858
I0
sg859
I0
stp870
Rp871
(dp872
g64
g7
sbssI25
(dp873
I0
g0
(g57
g58
(dp874
g192
I4
sg854
I1
sg855
I1
sg856
I1
sg857
I2
sg858
I0
sg859
I0
stp875
Rp876
(dp877
g64
g7
sbssI27
(dp878
I0
g0
(g57
g58
(dp879
g192
I4
sg854
I1
sg855
I1
sg856
I1
sg857
I2
sg858
I0
sg859
I0
stp880
Rp881
(dp882
g64
g7
sbssI31
(dp883
I0
g0
(g57
g58
(dp884
g192
I4
sg854
I1
sg855
I1
sg856
I1
sg857
I2
sg858
I0
sg859
I0
stp885
Rp886
(dp887
g64
g7
sbsssI27
(dp888
I2
(dp889
I0
g0
(g57
g58
(dp890
g197
I4
sS'noHXfreeze'
p891
I1
sS'tempCold'
p892
I1
sS'level'
p893
I2
sS'trackfl'
p894
I2
sS'tempHot'
p895
I0
sS'tempGood'
p896
I0
stp897
Rp898
(dp899
g64
g7
sbssI31
(dp900
I0
g0
(g57
g58
(dp901
g197
I4
sg891
I1
sg892
I1
sg893
I2
sg894
I2
sg895
I0
sg896
I0
stp902
Rp903
(dp904
g64
g7
sbsssI28
(dp905
I32
(dp906
I0
g0
(g57
g58
(dp907
g202
I6
sS'noHXfreeze'
p908
I1
sS'tempCold'
p909
I0
sS'level'
p910
I1
sS'trackfl'
p911
I3
sS'tempHot'
p912
I0
sS'tempGood'
p913
I0
stp914
Rp915
(dp916
g64
g7
sbssI30
(dp917
I0
g0
(g57
g58
(dp918
g202
I6
sg908
I1
sg909
I0
sg910
I1
sg911
I3
sg912
I0
sg913
I0
stp919
Rp920
(dp921
g64
g7
sbsssI29
(dp922
I32
(dp923
I0
g0
(g57
g58
(dp924
g207
I6
sS'noHXfreeze'
p925
I1
sS'tempCold'
p926
I0
sS'level'
p927
I2
sS'trackfl'
p928
I3
sS'tempHot'
p929
I0
sS'tempGood'
p930
I0
stp931
Rp932
(dp933
g64
g7
sbssI30
(dp934
I0
g0
(g57
g58
(dp935
g207
I6
sg925
I1
sg926
I0
sg927
I2
sg928
I3
sg929
I0
sg930
I0
stp936
Rp937
(dp938
g64
g7
sbsssI30
(dp939
I33
(dp940
I0
g0
(g57
g58
(dp941
g212
I33
sS'noHXfreeze'
p942
I0
sS'tempCold'
p943
I1
sS'level'
p944
I1
sS'trackfl'
p945
I3
sS'tempHot'
p946
I0
sS'tempGood'
p947
I0
stp948
Rp949
(dp950
g64
g7
sbsssI31
(dp951
I33
(dp952
I0
g0
(g57
g58
(dp953
g217
I35
sS'noHXfreeze'
p954
I0
sS'tempCold'
p955
I1
sS'level'
p956
I2
sS'trackfl'
p957
I2
sS'tempHot'
p958
I0
sS'tempGood'
p959
I0
stp960
Rp961
(dp962
g64
g7
sbssI29
(dp963
I0
g0
(g57
g58
(dp964
g217
I35
sg954
I0
sg955
I1
sg956
I2
sg957
I2
sg958
I0
sg959
I0
stp965
Rp966
(dp967
g64
g7
sbsssI32
(dp968
I33
(dp969
I0
g0
(g57
g58
(dp970
g222
I33
sS'noHXfreeze'
p971
I0
sS'tempCold'
p972
I1
sS'level'
p973
I0
sS'trackfl'
p974
I3
sS'tempHot'
p975
I0
sS'tempGood'
p976
I0
stp977
Rp978
(dp979
g64
g7
sbsssI33
(dp980
I34
(dp981
I0
g0
(g57
g58
(dp982
g227
I33
sS'noHXfreeze'
p983
I0
sS'tempCold'
p984
I1
sS'level'
p985
I2
sS'trackfl'
p986
I2
sS'tempHot'
p987
I0
sS'tempGood'
p988
I0
stp989
Rp990
(dp991
g64
g7
sbsssI34
(dp992
I38
(dp993
I0
g0
(g57
g58
(dp994
g232
I37
sS'noHXfreeze'
p995
I0
sS'tempCold'
p996
I0
sS'level'
p997
I2
sS'trackfl'
p998
I3
sS'tempHot'
p999
I0
sS'tempGood'
p1000
I0
stp1001
Rp1002
(dp1003
g64
g7
sbsssI35
(dp1004
g306
(dp1005
I0
g0
(g57
g58
(dp1006
g237
I0
sS'noHXfreeze'
p1007
I1
sS'tempCold'
p1008
I0
sS'level'
p1009
I1
sS'trackfl'
p1010
I1
sS'tempHot'
p1011
I0
sS'tempGood'
p1012
I1
stp1013
Rp1014
(dp1015
g64
g7
sbssI36
(dp1016
I0
g0
(g57
g58
(dp1017
g237
I0
sg1007
I1
sg1008
I0
sg1009
I1
sg1010
I1
sg1011
I0
sg1012
I1
stp1018
Rp1019
(dp1020
g64
g7
sbssI28
(dp1021
I0
g0
(g57
g58
(dp1022
g237
I0
sg1007
I1
sg1008
I0
sg1009
I1
sg1010
I1
sg1011
I0
sg1012
I1
stp1023
Rp1024
(dp1025
g64
g7
sbsssI36
(dp1026
I34
(dp1027
I0
g0
(g57
g58
(dp1028
g242
I0
sS'noHXfreeze'
p1029
I1
sS'tempCold'
p1030
I0
sS'level'
p1031
I1
sS'trackfl'
p1032
I1
sS'tempHot'
p1033
I0
sS'tempGood'
p1034
I1
stp1035
Rp1036
(dp1037
g64
g7
sbssI37
(dp1038
I0
g0
(g57
g58
(dp1039
g242
I0
sg1029
I1
sg1030
I0
sg1031
I1
sg1032
I1
sg1033
I0
sg1034
I1
stp1040
Rp1041
(dp1042
g64
g7
sbssI38
(dp1043
I0
g0
(g57
g58
(dp1044
g242
I0
sg1029
I1
sg1030
I0
sg1031
I1
sg1032
I1
sg1033
I0
sg1034
I1
stp1045
Rp1046
(dp1047
g64
g7
sbssg306
(dp1048
I0
g0
(g57
g58
(dp1049
g242
I0
sg1029
I1
sg1030
I0
sg1031
I1
sg1032
I1
sg1033
I0
sg1034
I1
stp1050
Rp1051
(dp1052
g64
g7
sbssI10
(dp1053
I0
g0
(g57
g58
(dp1054
g242
I0
sg1029
I1
sg1030
I0
sg1031
I1
sg1032
I1
sg1033
I0
sg1034
I1
stp1055
Rp1056
(dp1057
g64
g7
sbssI29
(dp1058
I0
g0
(g57
g58
(dp1059
g242
I0
sg1029
I1
sg1030
I0
sg1031
I1
sg1032
I1
sg1033
I0
sg1034
I1
stp1060
Rp1061
(dp1062
g64
g7
sbsssI37
(dp1063
g306
(dp1064
I0
g0
(g57
g58
(dp1065
g247
I0
sS'noHXfreeze'
p1066
I1
sS'tempCold'
p1067
I0
sS'level'
p1068
I1
sS'trackfl'
p1069
I1
sS'tempHot'
p1070
I0
sS'tempGood'
p1071
I1
stp1072
Rp1073
(dp1074
g64
g7
sbssI46
(dp1075
I0
g0
(g57
g58
(dp1076
g247
I0
sg1066
I1
sg1067
I0
sg1068
I1
sg1069
I1
sg1070
I0
sg1071
I1
stp1077
Rp1078
(dp1079
g64
g7
sbssI39
(dp1080
I0
g0
(g57
g58
(dp1081
g247
I0
sg1066
I1
sg1067
I0
sg1068
I1
sg1069
I1
sg1070
I0
sg1071
I1
stp1082
Rp1083
(dp1084
g64
g7
sbsssI38
(dp1085
I0
(dp1086
I0
g0
(g57
g58
(dp1087
g252
I0
sS'noHXfreeze'
p1088
I1
sS'tempCold'
p1089
I0
sS'level'
p1090
I2
sS'trackfl'
p1091
I1
sS'tempHot'
p1092
I0
sS'tempGood'
p1093
I1
stp1094
Rp1095
(dp1096
g64
g7
sbssI35
(dp1097
I0
g0
(g57
g58
(dp1098
g252
I0
sg1088
I1
sg1089
I0
sg1090
I2
sg1091
I1
sg1092
I0
sg1093
I1
stp1099
Rp1100
(dp1101
g64
g7
sbssI36
(dp1102
I0
g0
(g57
g58
(dp1103
g252
I0
sg1088
I1
sg1089
I0
sg1090
I2
sg1091
I1
sg1092
I0
sg1093
I1
stp1104
Rp1105
(dp1106
g64
g7
sbssI37
(dp1107
I0
g0
(g57
g58
(dp1108
g252
I0
sg1088
I1
sg1089
I0
sg1090
I2
sg1091
I1
sg1092
I0
sg1093
I1
stp1109
Rp1110
(dp1111
g64
g7
sbssI39
(dp1112
I0
g0
(g57
g58
(dp1113
g252
I0
sg1088
I1
sg1089
I0
sg1090
I2
sg1091
I1
sg1092
I0
sg1093
I1
stp1114
Rp1115
(dp1116
g64
g7
sbssI40
(dp1117
I0
g0
(g57
g58
(dp1118
g252
I0
sg1088
I1
sg1089
I0
sg1090
I2
sg1091
I1
sg1092
I0
sg1093
I1
stp1119
Rp1120
(dp1121
g64
g7
sbssI41
(dp1122
I0
g0
(g57
g58
(dp1123
g252
I0
sg1088
I1
sg1089
I0
sg1090
I2
sg1091
I1
sg1092
I0
sg1093
I1
stp1124
Rp1125
(dp1126
g64
g7
sbssI10
(dp1127
I0
g0
(g57
g58
(dp1128
g252
I0
sg1088
I1
sg1089
I0
sg1090
I2
sg1091
I1
sg1092
I0
sg1093
I1
stp1129
Rp1130
(dp1131
g64
g7
sbssI46
(dp1132
I0
g0
(g57
g58
(dp1133
g252
I0
sg1088
I1
sg1089
I0
sg1090
I2
sg1091
I1
sg1092
I0
sg1093
I1
stp1134
Rp1135
(dp1136
g64
g7
sbssI28
(dp1137
I0
g0
(g57
g58
(dp1138
g252
I0
sg1088
I1
sg1089
I0
sg1090
I2
sg1091
I1
sg1092
I0
sg1093
I1
stp1139
Rp1140
(dp1141
g64
g7
sbsssI39
(dp1142
I0
(dp1143
I0
g0
(g57
g58
(dp1144
g257
I0
sS'noHXfreeze'
p1145
I1
sS'tempCold'
p1146
I0
sS'level'
p1147
I1
sS'trackfl'
p1148
I1
sS'tempHot'
p1149
I0
sS'tempGood'
p1150
I1
stp1151
Rp1152
(dp1153
g64
g7
sbssI40
(dp1154
I0
g0
(g57
g58
(dp1155
g257
I0
sg1145
I1
sg1146
I0
sg1147
I1
sg1148
I1
sg1149
I0
sg1150
I1
stp1156
Rp1157
(dp1158
g64
g7
sbssI35
(dp1159
I0
g0
(g57
g58
(dp1160
g257
I0
sg1145
I1
sg1146
I0
sg1147
I1
sg1148
I1
sg1149
I0
sg1150
I1
stp1161
Rp1162
(dp1163
g64
g7
sbssg306
(dp1164
I0
g0
(g57
g58
(dp1165
g257
I0
sg1145
I1
sg1146
I0
sg1147
I1
sg1148
I1
sg1149
I0
sg1150
I1
stp1166
Rp1167
(dp1168
g64
g7
sbssI41
(dp1169
I0
g0
(g57
g58
(dp1170
g257
I0
sg1145
I1
sg1146
I0
sg1147
I1
sg1148
I1
sg1149
I0
sg1150
I1
stp1171
Rp1172
(dp1173
g64
g7
sbsssI40
(dp1174
I0
(dp1175
I0
g0
(g57
g58
(dp1176
g262
I0
sS'noHXfreeze'
p1177
I1
sS'tempCold'
p1178
I0
sS'level'
p1179
I0
sS'trackfl'
p1180
I1
sS'tempHot'
p1181
I0
sS'tempGood'
p1182
I1
stp1183
Rp1184
(dp1185
g64
g7
sbssI34
(dp1186
I0
g0
(g57
g58
(dp1187
g262
I0
sg1177
I1
sg1178
I0
sg1179
I0
sg1180
I1
sg1181
I0
sg1182
I1
stp1188
Rp1189
(dp1190
g64
g7
sbssI35
(dp1191
I0
g0
(g57
g58
(dp1192
g262
I0
sg1177
I1
sg1178
I0
sg1179
I0
sg1180
I1
sg1181
I0
sg1182
I1
stp1193
Rp1194
(dp1195
g64
g7
sbssI36
(dp1196
I0
g0
(g57
g58
(dp1197
g262
I0
sg1177
I1
sg1178
I0
sg1179
I0
sg1180
I1
sg1181
I0
sg1182
I1
stp1198
Rp1199
(dp1200
g64
g7
sbssI37
(dp1201
I0
g0
(g57
g58
(dp1202
g262
I0
sg1177
I1
sg1178
I0
sg1179
I0
sg1180
I1
sg1181
I0
sg1182
I1
stp1203
Rp1204
(dp1205
g64
g7
sbssI38
(dp1206
I0
g0
(g57
g58
(dp1207
g262
I0
sg1177
I1
sg1178
I0
sg1179
I0
sg1180
I1
sg1181
I0
sg1182
I1
stp1208
Rp1209
(dp1210
g64
g7
sbssI39
(dp1211
I0
g0
(g57
g58
(dp1212
g262
I0
sg1177
I1
sg1178
I0
sg1179
I0
sg1180
I1
sg1181
I0
sg1182
I1
stp1213
Rp1214
(dp1215
g64
g7
sbssI41
(dp1216
I0
g0
(g57
g58
(dp1217
g262
I0
sg1177
I1
sg1178
I0
sg1179
I0
sg1180
I1
sg1181
I0
sg1182
I1
stp1218
Rp1219
(dp1220
g64
g7
sbssI10
(dp1221
I0
g0
(g57
g58
(dp1222
g262
I0
sg1177
I1
sg1178
I0
sg1179
I0
sg1180
I1
sg1181
I0
sg1182
I1
stp1223
Rp1224
(dp1225
g64
g7
sbssI46
(dp1226
I0
g0
(g57
g58
(dp1227
g262
I0
sg1177
I1
sg1178
I0
sg1179
I0
sg1180
I1
sg1181
I0
sg1182
I1
stp1228
Rp1229
(dp1230
g64
g7
sbssI28
(dp1231
I0
g0
(g57
g58
(dp1232
g262
I0
sg1177
I1
sg1178
I0
sg1179
I0
sg1180
I1
sg1181
I0
sg1182
I1
stp1233
Rp1234
(dp1235
g64
g7
sbssI29
(dp1236
I0
g0
(g57
g58
(dp1237
g262
I0
sg1177
I1
sg1178
I0
sg1179
I0
sg1180
I1
sg1181
I0
sg1182
I1
stp1238
Rp1239
(dp1240
g64
g7
sbsssI41
(dp1241
g306
(dp1242
I0
g0
(g57
g58
(dp1243
g267
I21
sS'noHXfreeze'
p1244
I1
sS'tempCold'
p1245
I0
sS'level'
p1246
I1
sS'trackfl'
p1247
I1
sS'tempHot'
p1248
I0
sS'tempGood'
p1249
I1
stp1250
Rp1251
(dp1252
g64
g7
sbssI43
(dp1253
I0
g0
(g57
g58
(dp1254
g267
I21
sg1244
I1
sg1245
I0
sg1246
I1
sg1247
I1
sg1248
I0
sg1249
I1
stp1255
Rp1256
(dp1257
g64
g7
sbsssI42
(dp1258
I40
(dp1259
I0
g0
(g57
g58
(dp1260
g272
I5
sS'noHXfreeze'
p1261
I1
sS'tempCold'
p1262
I0
sS'level'
p1263
I0
sS'trackfl'
p1264
I3
sS'tempHot'
p1265
I0
sS'tempGood'
p1266
I0
stp1267
Rp1268
(dp1269
g64
g7
sbssI43
(dp1270
I0
g0
(g57
g58
(dp1271
g272
I5
sg1261
I1
sg1262
I0
sg1263
I0
sg1264
I3
sg1265
I0
sg1266
I0
stp1272
Rp1273
(dp1274
g64
g7
sbssI44
(dp1275
I0
g0
(g57
g58
(dp1276
g272
I5
sg1261
I1
sg1262
I0
sg1263
I0
sg1264
I3
sg1265
I0
sg1266
I0
stp1277
Rp1278
(dp1279
g64
g7
sbssI45
(dp1280
I0
g0
(g57
g58
(dp1281
g272
I5
sg1261
I1
sg1262
I0
sg1263
I0
sg1264
I3
sg1265
I0
sg1266
I0
stp1282
Rp1283
(dp1284
g64
g7
sbssI14
(dp1285
I0
g0
(g57
g58
(dp1286
g272
I5
sg1261
I1
sg1262
I0
sg1263
I0
sg1264
I3
sg1265
I0
sg1266
I0
stp1287
Rp1288
(dp1289
g64
g7
sbssI47
(dp1290
I0
g0
(g57
g58
(dp1291
g272
I5
sg1261
I1
sg1262
I0
sg1263
I0
sg1264
I3
sg1265
I0
sg1266
I0
stp1292
Rp1293
(dp1294
g64
g7
sbsssI43
(dp1295
I7
(dp1296
I0
g0
(g57
g58
(dp1297
g277
I5
sS'noHXfreeze'
p1298
I1
sS'tempCold'
p1299
I0
sS'level'
p1300
I1
sS'trackfl'
p1301
I3
sS'tempHot'
p1302
I0
sS'tempGood'
p1303
I0
stp1304
Rp1305
(dp1306
g64
g7
sbssI8
(dp1307
I0
g0
(g57
g58
(dp1308
g277
I5
sg1298
I1
sg1299
I0
sg1300
I1
sg1301
I3
sg1302
I0
sg1303
I0
stp1309
Rp1310
(dp1311
g64
g7
sbssI9
(dp1312
I0
g0
(g57
g58
(dp1313
g277
I5
sg1298
I1
sg1299
I0
sg1300
I1
sg1301
I3
sg1302
I0
sg1303
I0
stp1314
Rp1315
(dp1316
g64
g7
sbssI42
(dp1317
I0
g0
(g57
g58
(dp1318
g277
I5
sg1298
I1
sg1299
I0
sg1300
I1
sg1301
I3
sg1302
I0
sg1303
I0
stp1319
Rp1320
(dp1321
g64
g7
sbssI11
(dp1322
I0
g0
(g57
g58
(dp1323
g277
I5
sg1298
I1
sg1299
I0
sg1300
I1
sg1301
I3
sg1302
I0
sg1303
I0
stp1324
Rp1325
(dp1326
g64
g7
sbssI44
(dp1327
I0
g0
(g57
g58
(dp1328
g277
I5
sg1298
I1
sg1299
I0
sg1300
I1
sg1301
I3
sg1302
I0
sg1303
I0
stp1329
Rp1330
(dp1331
g64
g7
sbssI45
(dp1332
I0
g0
(g57
g58
(dp1333
g277
I5
sg1298
I1
sg1299
I0
sg1300
I1
sg1301
I3
sg1302
I0
sg1303
I0
stp1334
Rp1335
(dp1336
g64
g7
sbssI14
(dp1337
I0
g0
(g57
g58
(dp1338
g277
I5
sg1298
I1
sg1299
I0
sg1300
I1
sg1301
I3
sg1302
I0
sg1303
I0
stp1339
Rp1340
(dp1341
g64
g7
sbssI15
(dp1342
I0
g0
(g57
g58
(dp1343
g277
I5
sg1298
I1
sg1299
I0
sg1300
I1
sg1301
I3
sg1302
I0
sg1303
I0
stp1344
Rp1345
(dp1346
g64
g7
sbssI47
(dp1347
I0
g0
(g57
g58
(dp1348
g277
I5
sg1298
I1
sg1299
I0
sg1300
I1
sg1301
I3
sg1302
I0
sg1303
I0
stp1349
Rp1350
(dp1351
g64
g7
sbsssI44
(dp1352
I43
(dp1353
I0
g0
(g57
g58
(dp1354
g282
I5
sS'noHXfreeze'
p1355
I1
sS'tempCold'
p1356
I0
sS'level'
p1357
I2
sS'trackfl'
p1358
I3
sS'tempHot'
p1359
I0
sS'tempGood'
p1360
I0
stp1361
Rp1362
(dp1363
g64
g7
sbssI7
(dp1364
I0
g0
(g57
g58
(dp1365
g282
I5
sg1355
I1
sg1356
I0
sg1357
I2
sg1358
I3
sg1359
I0
sg1360
I0
stp1366
Rp1367
(dp1368
g64
g7
sbssI8
(dp1369
I0
g0
(g57
g58
(dp1370
g282
I5
sg1355
I1
sg1356
I0
sg1357
I2
sg1358
I3
sg1359
I0
sg1360
I0
stp1371
Rp1372
(dp1373
g64
g7
sbssI9
(dp1374
I0
g0
(g57
g58
(dp1375
g282
I5
sg1355
I1
sg1356
I0
sg1357
I2
sg1358
I3
sg1359
I0
sg1360
I0
stp1376
Rp1377
(dp1378
g64
g7
sbssI42
(dp1379
I0
g0
(g57
g58
(dp1380
g282
I5
sg1355
I1
sg1356
I0
sg1357
I2
sg1358
I3
sg1359
I0
sg1360
I0
stp1381
Rp1382
(dp1383
g64
g7
sbssI11
(dp1384
I0
g0
(g57
g58
(dp1385
g282
I5
sg1355
I1
sg1356
I0
sg1357
I2
sg1358
I3
sg1359
I0
sg1360
I0
stp1386
Rp1387
(dp1388
g64
g7
sbssI45
(dp1389
I0
g0
(g57
g58
(dp1390
g282
I5
sg1355
I1
sg1356
I0
sg1357
I2
sg1358
I3
sg1359
I0
sg1360
I0
stp1391
Rp1392
(dp1393
g64
g7
sbssI15
(dp1394
I0
g0
(g57
g58
(dp1395
g282
I5
sg1355
I1
sg1356
I0
sg1357
I2
sg1358
I3
sg1359
I0
sg1360
I0
stp1396
Rp1397
(dp1398
g64
g7
sbssI47
(dp1399
I0
g0
(g57
g58
(dp1400
g282
I5
sg1355
I1
sg1356
I0
sg1357
I2
sg1358
I3
sg1359
I0
sg1360
I0
stp1401
Rp1402
(dp1403
g64
g7
sbsssI45
(dp1404
I48
(dp1405
I0
g0
(g57
g58
(dp1406
g287
I1
sS'noHXfreeze'
p1407
I0
sS'tempCold'
p1408
I0
sS'level'
p1409
I2
sS'trackfl'
p1410
I3
sS'tempHot'
p1411
I0
sS'tempGood'
p1412
I1
stp1413
Rp1414
(dp1415
g64
g7
sbsssI46
(dp1416
I48
(dp1417
I0
g0
(g57
g58
(dp1418
g292
I31
sS'noHXfreeze'
p1419
I0
sS'tempCold'
p1420
I0
sS'level'
p1421
I1
sS'trackfl'
p1422
I1
sS'tempHot'
p1423
I0
sS'tempGood'
p1424
I1
stp1425
Rp1426
(dp1427
g64
g7
sbssg306
(dp1428
I0
g0
(g57
g58
(dp1429
g292
I31
sg1419
I0
sg1420
I0
sg1421
I1
sg1422
I1
sg1423
I0
sg1424
I1
stp1430
Rp1431
(dp1432
g64
g7
sbsssI47
(dp1433
I48
(dp1434
I0
g0
(g57
g58
(dp1435
g297
I1
sS'noHXfreeze'
p1436
I0
sS'tempCold'
p1437
I0
sS'level'
p1438
I0
sS'trackfl'
p1439
I3
sS'tempHot'
p1440
I0
sS'tempGood'
p1441
I1
stp1442
Rp1443
(dp1444
g64
g7
sbsssI48
(dp1445
g306
(dp1446
I0
g0
(g57
g58
(dp1447
g302
I1
sS'noHXfreeze'
p1448
I0
sS'tempCold'
p1449
I0
sS'level'
p1450
I1
sS'trackfl'
p1451
I1
sS'tempHot'
p1452
I0
sS'tempGood'
p1453
I1
stp1454
Rp1455
(dp1456
g64
g7
sbsssg306
(dp1457
ssS'succ'
p1458
(dp1459
I0
(dp1460
I40
g1175
sI38
g1086
sI39
g1143
ssI1
(dp1461
I24
g798
sI25
g815
sI26
g852
ssI2
(dp1462
I25
g826
sI26
g863
sI27
g889
ssI3
(dp1463
I22
g689
sI6
g418
sI23
g756
ssI4
(dp1464
I3
g371
sI22
g700
sI23
g767
ssI5
(dp1465
I4
g383
sI22
g705
sI23
g772
ssI6
(dp1466
I5
g395
sI22
g710
sI23
g777
ssI7
(dp1467
I11
g488
sI43
g1296
sI44
g1364
ssI8
(dp1468
I43
g1307
sI44
g1369
sI7
g424
ssI9
(dp1469
I8
g436
sI43
g1312
sI44
g1374
ssI10
(dp1470
I40
g1221
sI36
g1053
sI38
g1127
ssI11
(dp1471
I9
g448
sI43
g1322
sI44
g1384
ssI12
(dp1472
I17
g575
sI19
g603
sI22
g715
ssI13
(dp1473
I17
g580
sI12
g494
sI15
g541
ssI14
(dp1474
I42
g1285
sI43
g1337
sI13
g506
ssI15
(dp1475
I11
g483
sI43
g1342
sI44
g1394
ssI16
(dp1476
I20
g645
sI14
g518
sI15
g530
ssI17
(dp1477
I19
g614
sI21
g678
sI22
g720
ssI18
(dp1478
I17
g570
sI19
g619
sI22
g725
ssI19
(dp1479
I22
g730
sI6
g407
sI23
g782
ssI20
(dp1480
I18
g597
sI19
g624
sI22
g735
ssI21
(dp1481
I19
g629
sI20
g661
sI22
g740
ssI22
(dp1482
I16
g547
sI19
g634
sI23
g787
ssI23
(dp1483
I19
g639
sI21
g683
sI22
g745
ssI24
(dp1484
I25
g831
sI2
g354
sI26
g868
ssI25
(dp1485
I2
g365
sI26
g873
sI22
g750
ssI26
(dp1486
I24
g809
sI25
g836
sI23
g792
ssI27
(dp1487
I25
g841
sI26
g878
sI1
g342
ssI28
(dp1488
I40
g1231
sI35
g1021
sI38
g1137
ssI29
(dp1489
I40
g1236
sI36
g1058
sI31
g963
ssI30
(dp1490
I0
g336
sI28
g917
sI29
g934
ssI31
(dp1491
I25
g846
sI26
g883
sI27
g900
ssI32
(dp1492
I0
g325
sI28
g906
sI29
g923
ssI33
(dp1493
I32
g969
sI30
g940
sI31
g952
ssI34
(dp1494
I40
g1186
sI33
g981
sI36
g1027
ssI35
(dp1495
I40
g1191
sI38
g1097
sI39
g1159
ssI36
(dp1496
I40
g1196
sI35
g1016
sI38
g1102
ssI37
(dp1497
I40
g1201
sI36
g1038
sI38
g1107
ssI38
(dp1498
I40
g1206
sI34
g993
sI36
g1043
ssI39
(dp1499
I40
g1211
sI37
g1080
sI38
g1112
ssI40
(dp1500
I42
g1259
sI38
g1117
sI39
g1154
ssI41
(dp1501
I40
g1216
sI38
g1122
sI39
g1169
ssI42
(dp1502
I11
g472
sI43
g1317
sI44
g1379
ssI43
(dp1503
I41
g1253
sI42
g1270
sI44
g1353
ssI44
(dp1504
I42
g1275
sI43
g1327
sI10
g460
ssI45
(dp1505
I42
g1280
sI43
g1332
sI44
g1389
ssI46
(dp1506
I40
g1226
sI37
g1075
sI38
g1132
ssI47
(dp1507
I42
g1290
sI43
g1347
sI44
g1399
ssI48
(dp1508
I45
g1405
sI46
g1417
sI47
g1434
ssg306
(dp1509
I35
g1005
sI36
g1048
sI37
g1064
sI39
g1164
sI41
g1242
sI46
g1428
sI48
g1446
sI17
g559
sI18
g586
sI20
g656
sI21
g667
sssS'default_layout'
p1510
S'dot'
p1511
sS'_edge_label_types'
p1512
g7
sS'_state_dot_label_format'
p1513
(dp1514
g8
g8
sS'separator'
p1515
S'\\n'
p1516
sS'type?label'
p1517
S':'
p1518
ssS'edge'
p1519
g1459
sS'_transition_dot_label_format'
p1520
(dp1521
g8
S'/out:loc'
p1522
sg13
S'/out:noHXfreeze'
p1523
sg1517
g1518
sg17
g17
sg21
S'/out:tempCold'
p1524
sg25
S'/out:tempGood'
p1525
sg29
S'/out:trackfl'
p1526
sg1515
g1516
sg33
S'/out:tempHot'
p1527
ssg53
(dp1528
sS'dot_node_shape'
p1529
(dp1530
S'normal'
p1531
S'ellipse'
p1532
ssS'_node_label_types'
p1533
g65
sS'adj'
p1534
g1459
sS'_transition_dot_mask'
p1535
(dp1536
g8
c__builtin__
bool
p1537
sg13
g1537
sg21
g1537
sg25
g1537
sg29
g1537
sg33
g1537
ssS'default_export_fname'
p1538
S'mealy'
p1539
sS'states'
p1540
g0
(ctulip.transys.labeled_graphs
States
p1541
g2
Ntp1542
Rp1543
(dp1544
g53
g4
sS'_current'
p1545
g0
(ctulip.transys.mathset
SubSet
p1546
g2
Ntp1547
Rp1548
(dp1549
S'_superset'
p1550
g1543
sS'_list'
p1551
(lp1552
sS'_set'
p1553
g9
((lp1554
tp1555
Rp1556
sbsS'_initial'
p1557
g0
(g1546
g2
Ntp1558
Rp1559
(dp1560
g1550
g1543
sg1551
(lp1561
sg1553
g9
((lp1562
g306
atp1563
Rp1564
sbsbsb.